Archive member included because of file (symbol)

../../../../../Utilities/STM32F4-Discovery\libPDMFilter_GCC.a(pdm_filter.o)
                              User\waverecorder.o (PDM_Filter_Init)
c:/program files/atollic/truestudio for stmicroelectronics stm32 lite 2.2.0/armtools/bin/../lib/gcc/arm-atollic-eabi/4.5.1/thumb/thumb2\libgcc.a(_arm_addsubdf3.o)
                              ../../../../../Utilities/STM32F4-Discovery\libPDMFilter_GCC.a(pdm_filter.o) (__aeabi_dadd)
c:/program files/atollic/truestudio for stmicroelectronics stm32 lite 2.2.0/armtools/bin/../lib/gcc/arm-atollic-eabi/4.5.1/thumb/thumb2\libgcc.a(_arm_muldivdf3.o)
                              ../../../../../Utilities/STM32F4-Discovery\libPDMFilter_GCC.a(pdm_filter.o) (__aeabi_dmul)
c:/program files/atollic/truestudio for stmicroelectronics stm32 lite 2.2.0/armtools/bin/../lib/gcc/arm-atollic-eabi/4.5.1/thumb/thumb2\libgcc.a(_arm_fixunsdfsi.o)
                              ../../../../../Utilities/STM32F4-Discovery\libPDMFilter_GCC.a(pdm_filter.o) (__aeabi_d2uiz)
c:/program files/atollic/truestudio for stmicroelectronics stm32 lite 2.2.0/armtools/bin/../lib/gcc/arm-atollic-eabi/4.5.1/thumb/thumb2\libgcc.a(_arm_muldivsf3.o)
                              ../../../../../Utilities/STM32F4-Discovery\libPDMFilter_GCC.a(pdm_filter.o) (__aeabi_fmul)
c:/program files/atollic/truestudio for stmicroelectronics stm32 lite 2.2.0/armtools/bin/../lib/gcc/arm-atollic-eabi/4.5.1/thumb/thumb2\libgcc.a(_arm_cmpsf2.o)
                              ../../../../../Utilities/STM32F4-Discovery\libPDMFilter_GCC.a(pdm_filter.o) (__aeabi_fcmpeq)
c:/program files/atollic/truestudio for stmicroelectronics stm32 lite 2.2.0/armtools/bin/../lib/gcc/arm-atollic-eabi/4.5.1/../../../../arm-atollic-eabi/lib/thumb/thumb2\libc.a(lib_a-init.o)
                              TrueSTUDIO\startup_stm32f4xx.o (__libc_init_array)

Allocating common symbols
Common symbol       size              file

CurrentPos          0x4               STM32F4-Discovery\stm32f4_discovery_audio_codec.o
HSEStartUpStatus    0x1               User\usb_bsp.o
fileR               0x424             User\usbh_usr.o
USBH_MSC_CSWData    0x10              STM32_USB_HOST_Library\Class\MSC\usbh_msc_bot.o
bytesWritten        0x2               User\waverecorder.o
MSC_Machine         0x4a              STM32_USB_HOST_Library\Class\MSC\usbh_msc_core.o
WAVE_Format         0x18              User\waveplayer.o
fno                 0x18              User\usbh_usr.o
writebuffer         0x4               User\waverecorder.o
pAudioRecBuf        0x4               User\waverecorder.o
RAM_Buf             0xbb8             User\waverecorder.o
USBH_DataInBuffer   0x200             STM32_USB_HOST_Library\Class\MSC\usbh_msc_scsi.o
BytesRead           0x4               User\waveplayer.o
USBH_MSC_Param      0x10              STM32_USB_HOST_Library\Class\MSC\usbh_msc_scsi.o
USBH_MSC_BOTXferParam
                    0x10              STM32_USB_HOST_Library\Class\MSC\usbh_msc_bot.o
file                0x424             User\usbh_usr.o
RecBuf1             0x20              User\waverecorder.o
RecBuf              0x20              User\waverecorder.o
Filter              0x34              User\waverecorder.o
RecBufHeader        0x200             User\waverecorder.o
RAM_Buf1            0xbb8             User\waverecorder.o
USB_OTG_Core        0x4b0             User\main.o
USBH_DataOutBuffer  0x200             STM32_USB_HOST_Library\Class\MSC\usbh_msc_scsi.o
AUDIO_MAL_DMA_InitStructure
                    0x3c              STM32F4-Discovery\stm32f4_discovery_audio_codec.o
WaveCounter         0x4               User\waveplayer.o
dir                 0x1c              User\usbh_usr.o
MSC_Setup           0x8               STM32_USB_HOST_Library\Class\MSC\usbh_msc_core.o
Buffer              0x6               User\waveplayer.o
USBH_MSC_CBWData    0x20              STM32_USB_HOST_Library\Class\MSC\usbh_msc_bot.o
NVIC_InitStructure  0x4               STM32F4-Discovery\stm32f4_discovery.o
RCC_Clocks          0x10              User\main.o
USB_Host            0x84              User\main.o
DMA_InitStructure   0x3c              STM32F4-Discovery\stm32f4_discovery_audio_codec.o
fatfs               0x430             User\usbh_usr.o

Discarded input sections

 .text          0x00000000        0x0 c:/program files/atollic/truestudio for stmicroelectronics stm32 lite 2.2.0/armtools/bin/../lib/gcc/arm-atollic-eabi/4.5.1/thumb/thumb2/crti.o
 .data          0x00000000        0x0 c:/program files/atollic/truestudio for stmicroelectronics stm32 lite 2.2.0/armtools/bin/../lib/gcc/arm-atollic-eabi/4.5.1/thumb/thumb2/crti.o
 .bss           0x00000000        0x0 c:/program files/atollic/truestudio for stmicroelectronics stm32 lite 2.2.0/armtools/bin/../lib/gcc/arm-atollic-eabi/4.5.1/thumb/thumb2/crti.o
 .data          0x00000000        0x4 c:/program files/atollic/truestudio for stmicroelectronics stm32 lite 2.2.0/armtools/bin/../lib/gcc/arm-atollic-eabi/4.5.1/thumb/thumb2/crtbegin.o
 .text          0x00000000        0x0 User\waverecorder.o
 .data          0x00000000        0x0 User\waverecorder.o
 .bss           0x00000000        0x0 User\waverecorder.o
 .text          0x00000000        0x0 User\waveplayer.o
 .data          0x00000000        0x0 User\waveplayer.o
 .bss           0x00000000        0x0 User\waveplayer.o
 .text.WaveplayerCtrlVolume
                0x00000000        0xa User\waveplayer.o
 .text.AudioFlashPlay
                0x00000000        0xc User\waveplayer.o
 .text.EVAL_AUDIO_HalfTransfer_CallBack
                0x00000000        0x2 User\waveplayer.o
 .text.EVAL_AUDIO_Error_CallBack
                0x00000000        0x2 User\waveplayer.o
 .text          0x00000000        0x0 User\usbh_usr.o
 .data          0x00000000        0x0 User\usbh_usr.o
 .bss           0x00000000        0x0 User\usbh_usr.o
 .bss.joystick_use
                0x00000000        0x1 User\usbh_usr.o
 .bss.lcdLineNo
                0x00000000        0x1 User\usbh_usr.o
 .text          0x00000000        0x0 User\usb_bsp.o
 .data          0x00000000        0x0 User\usb_bsp.o
 .bss           0x00000000        0x0 User\usb_bsp.o
 .text.BSP_Init
                0x00000000        0x8 User\usb_bsp.o
 COMMON         0x00000000        0x1 User\usb_bsp.o
 .text          0x00000000        0x0 User\system_stm32f4xx.o
 .data          0x00000000        0x0 User\system_stm32f4xx.o
 .bss           0x00000000        0x0 User\system_stm32f4xx.o
 .text.SystemCoreClockUpdate
                0x00000000       0x90 User\system_stm32f4xx.o
 .data.AHBPrescTable
                0x00000000       0x10 User\system_stm32f4xx.o
 .text          0x00000000        0x0 User\stm32f4xx_it.o
 .data          0x00000000        0x0 User\stm32f4xx_it.o
 .bss           0x00000000        0x0 User\stm32f4xx_it.o
 .text          0x00000000        0x0 User\main.o
 .data          0x00000000        0x0 User\main.o
 .bss           0x00000000        0x0 User\main.o
 .text          0x00000000       0x14 TrueSTUDIO\startup_stm32f4xx.o
 .data          0x00000000        0x0 TrueSTUDIO\startup_stm32f4xx.o
 .bss           0x00000000        0x0 TrueSTUDIO\startup_stm32f4xx.o
 .text          0x00000000        0x0 STM32_USB_OTG_Driver\usb_hcd_int.o
 .data          0x00000000        0x0 STM32_USB_OTG_Driver\usb_hcd_int.o
 .bss           0x00000000        0x0 STM32_USB_OTG_Driver\usb_hcd_int.o
 .text          0x00000000        0x0 STM32_USB_OTG_Driver\usb_hcd.o
 .data          0x00000000        0x0 STM32_USB_OTG_Driver\usb_hcd.o
 .bss           0x00000000        0x0 STM32_USB_OTG_Driver\usb_hcd.o
 .text.HCD_GetHCState
                0x00000000        0x8 STM32_USB_OTG_Driver\usb_hcd.o
 .text.HCD_HC_Init
                0x00000000        0x8 STM32_USB_OTG_Driver\usb_hcd.o
 .text          0x00000000        0x0 STM32_USB_OTG_Driver\usb_core.o
 .data          0x00000000        0x0 STM32_USB_OTG_Driver\usb_core.o
 .bss           0x00000000        0x0 STM32_USB_OTG_Driver\usb_core.o
 .text.USB_OTG_IsDeviceMode
                0x00000000        0xe STM32_USB_OTG_Driver\usb_core.o
 .text.USB_OTG_ReadOtgItr
                0x00000000        0x6 STM32_USB_OTG_Driver\usb_core.o
 .text.USB_OTG_StopHost
                0x00000000       0x44 STM32_USB_OTG_Driver\usb_core.o
 .text          0x00000000        0x0 STM32_USB_HOST_Library\Core\usbh_stdreq.o
 .data          0x00000000        0x0 STM32_USB_HOST_Library\Core\usbh_stdreq.o
 .bss           0x00000000        0x0 STM32_USB_HOST_Library\Core\usbh_stdreq.o
 .text          0x00000000        0x0 STM32_USB_HOST_Library\Core\usbh_ioreq.o
 .data          0x00000000        0x0 STM32_USB_HOST_Library\Core\usbh_ioreq.o
 .bss           0x00000000        0x0 STM32_USB_HOST_Library\Core\usbh_ioreq.o
 .text.USBH_InterruptReceiveData
                0x00000000       0x44 STM32_USB_HOST_Library\Core\usbh_ioreq.o
 .text.USBH_InterruptSendData
                0x00000000       0x44 STM32_USB_HOST_Library\Core\usbh_ioreq.o
 .text          0x00000000        0x0 STM32_USB_HOST_Library\Core\usbh_hcs.o
 .data          0x00000000        0x0 STM32_USB_HOST_Library\Core\usbh_hcs.o
 .bss           0x00000000        0x0 STM32_USB_HOST_Library\Core\usbh_hcs.o
 .text          0x00000000        0x0 STM32_USB_HOST_Library\Core\usbh_core.o
 .data          0x00000000        0x0 STM32_USB_HOST_Library\Core\usbh_core.o
 .bss           0x00000000        0x0 STM32_USB_HOST_Library\Core\usbh_core.o
 .text          0x00000000        0x0 STM32_USB_HOST_Library\Class\MSC\usbh_msc_scsi.o
 .data          0x00000000        0x0 STM32_USB_HOST_Library\Class\MSC\usbh_msc_scsi.o
 .bss           0x00000000        0x0 STM32_USB_HOST_Library\Class\MSC\usbh_msc_scsi.o
 .text          0x00000000        0x0 STM32_USB_HOST_Library\Class\MSC\usbh_msc_fatfs.o
 .data          0x00000000        0x0 STM32_USB_HOST_Library\Class\MSC\usbh_msc_fatfs.o
 .bss           0x00000000        0x0 STM32_USB_HOST_Library\Class\MSC\usbh_msc_fatfs.o
 .text          0x00000000        0x0 STM32_USB_HOST_Library\Class\MSC\usbh_msc_core.o
 .data          0x00000000        0x0 STM32_USB_HOST_Library\Class\MSC\usbh_msc_core.o
 .bss           0x00000000        0x0 STM32_USB_HOST_Library\Class\MSC\usbh_msc_core.o
 .text          0x00000000        0x0 STM32_USB_HOST_Library\Class\MSC\usbh_msc_bot.o
 .data          0x00000000        0x0 STM32_USB_HOST_Library\Class\MSC\usbh_msc_bot.o
 .bss           0x00000000        0x0 STM32_USB_HOST_Library\Class\MSC\usbh_msc_bot.o
 .text          0x00000000        0x0 STM32F4xx_StdPeriph_Driver\stm32f4xx_tim.o
 .data          0x00000000        0x0 STM32F4xx_StdPeriph_Driver\stm32f4xx_tim.o
 .bss           0x00000000        0x0 STM32F4xx_StdPeriph_Driver\stm32f4xx_tim.o
 .text.TI1_Config
                0x00000000       0x38 STM32F4xx_StdPeriph_Driver\stm32f4xx_tim.o
 .text.TI2_Config
                0x00000000       0x3c STM32F4xx_StdPeriph_Driver\stm32f4xx_tim.o
 .text.TIM_DeInit
                0x00000000      0x154 STM32F4xx_StdPeriph_Driver\stm32f4xx_tim.o
 .text.TIM_TimeBaseStructInit
                0x00000000       0x12 STM32F4xx_StdPeriph_Driver\stm32f4xx_tim.o
 .text.TIM_PrescalerConfig
                0x00000000        0x6 STM32F4xx_StdPeriph_Driver\stm32f4xx_tim.o
 .text.TIM_CounterModeConfig
                0x00000000       0x12 STM32F4xx_StdPeriph_Driver\stm32f4xx_tim.o
 .text.TIM_SetCounter
                0x00000000        0x4 STM32F4xx_StdPeriph_Driver\stm32f4xx_tim.o
 .text.TIM_SetAutoreload
                0x00000000        0x4 STM32F4xx_StdPeriph_Driver\stm32f4xx_tim.o
 .text.TIM_GetCounter
                0x00000000        0x4 STM32F4xx_StdPeriph_Driver\stm32f4xx_tim.o
 .text.TIM_GetPrescaler
                0x00000000        0x6 STM32F4xx_StdPeriph_Driver\stm32f4xx_tim.o
 .text.TIM_UpdateDisableConfig
                0x00000000       0x1a STM32F4xx_StdPeriph_Driver\stm32f4xx_tim.o
 .text.TIM_UpdateRequestConfig
                0x00000000       0x1a STM32F4xx_StdPeriph_Driver\stm32f4xx_tim.o
 .text.TIM_SelectOnePulseMode
                0x00000000       0x18 STM32F4xx_StdPeriph_Driver\stm32f4xx_tim.o
 .text.TIM_SetClockDivision
                0x00000000       0x18 STM32F4xx_StdPeriph_Driver\stm32f4xx_tim.o
 .text.TIM_OC2Init
                0x00000000       0x90 STM32F4xx_StdPeriph_Driver\stm32f4xx_tim.o
 .text.TIM_OC3Init
                0x00000000       0x8c STM32F4xx_StdPeriph_Driver\stm32f4xx_tim.o
 .text.TIM_OC4Init
                0x00000000       0x6c STM32F4xx_StdPeriph_Driver\stm32f4xx_tim.o
 .text.TIM_OCStructInit
                0x00000000       0x14 STM32F4xx_StdPeriph_Driver\stm32f4xx_tim.o
 .text.TIM_SelectOCxM
                0x00000000       0x4c STM32F4xx_StdPeriph_Driver\stm32f4xx_tim.o
 .text.TIM_SetCompare2
                0x00000000        0x4 STM32F4xx_StdPeriph_Driver\stm32f4xx_tim.o
 .text.TIM_SetCompare3
                0x00000000        0x4 STM32F4xx_StdPeriph_Driver\stm32f4xx_tim.o
 .text.TIM_SetCompare4
                0x00000000        0x4 STM32F4xx_StdPeriph_Driver\stm32f4xx_tim.o
 .text.TIM_ForcedOC1Config
                0x00000000       0x12 STM32F4xx_StdPeriph_Driver\stm32f4xx_tim.o
 .text.TIM_ForcedOC2Config
                0x00000000       0x14 STM32F4xx_StdPeriph_Driver\stm32f4xx_tim.o
 .text.TIM_ForcedOC3Config
                0x00000000       0x12 STM32F4xx_StdPeriph_Driver\stm32f4xx_tim.o
 .text.TIM_ForcedOC4Config
                0x00000000       0x14 STM32F4xx_StdPeriph_Driver\stm32f4xx_tim.o
 .text.TIM_OC2PreloadConfig
                0x00000000       0x14 STM32F4xx_StdPeriph_Driver\stm32f4xx_tim.o
 .text.TIM_OC3PreloadConfig
                0x00000000       0x12 STM32F4xx_StdPeriph_Driver\stm32f4xx_tim.o
 .text.TIM_OC4PreloadConfig
                0x00000000       0x14 STM32F4xx_StdPeriph_Driver\stm32f4xx_tim.o
 .text.TIM_OC1FastConfig
                0x00000000       0x12 STM32F4xx_StdPeriph_Driver\stm32f4xx_tim.o
 .text.TIM_OC2FastConfig
                0x00000000       0x14 STM32F4xx_StdPeriph_Driver\stm32f4xx_tim.o
 .text.TIM_OC3FastConfig
                0x00000000       0x12 STM32F4xx_StdPeriph_Driver\stm32f4xx_tim.o
 .text.TIM_OC4FastConfig
                0x00000000       0x14 STM32F4xx_StdPeriph_Driver\stm32f4xx_tim.o
 .text.TIM_ClearOC1Ref
                0x00000000       0x12 STM32F4xx_StdPeriph_Driver\stm32f4xx_tim.o
 .text.TIM_ClearOC2Ref
                0x00000000       0x10 STM32F4xx_StdPeriph_Driver\stm32f4xx_tim.o
 .text.TIM_ClearOC3Ref
                0x00000000       0x12 STM32F4xx_StdPeriph_Driver\stm32f4xx_tim.o
 .text.TIM_ClearOC4Ref
                0x00000000       0x10 STM32F4xx_StdPeriph_Driver\stm32f4xx_tim.o
 .text.TIM_OC1PolarityConfig
                0x00000000       0x12 STM32F4xx_StdPeriph_Driver\stm32f4xx_tim.o
 .text.TIM_OC1NPolarityConfig
                0x00000000       0x12 STM32F4xx_StdPeriph_Driver\stm32f4xx_tim.o
 .text.TIM_OC2PolarityConfig
                0x00000000       0x14 STM32F4xx_StdPeriph_Driver\stm32f4xx_tim.o
 .text.TIM_OC2NPolarityConfig
                0x00000000       0x14 STM32F4xx_StdPeriph_Driver\stm32f4xx_tim.o
 .text.TIM_OC3PolarityConfig
                0x00000000       0x14 STM32F4xx_StdPeriph_Driver\stm32f4xx_tim.o
 .text.TIM_OC3NPolarityConfig
                0x00000000       0x14 STM32F4xx_StdPeriph_Driver\stm32f4xx_tim.o
 .text.TIM_OC4PolarityConfig
                0x00000000       0x14 STM32F4xx_StdPeriph_Driver\stm32f4xx_tim.o
 .text.TIM_CCxCmd
                0x00000000       0x20 STM32F4xx_StdPeriph_Driver\stm32f4xx_tim.o
 .text.TIM_CCxNCmd
                0x00000000       0x20 STM32F4xx_StdPeriph_Driver\stm32f4xx_tim.o
 .text.TIM_ICStructInit
                0x00000000       0x10 STM32F4xx_StdPeriph_Driver\stm32f4xx_tim.o
 .text.TIM_GetCapture2
                0x00000000        0x4 STM32F4xx_StdPeriph_Driver\stm32f4xx_tim.o
 .text.TIM_GetCapture3
                0x00000000        0x4 STM32F4xx_StdPeriph_Driver\stm32f4xx_tim.o
 .text.TIM_GetCapture4
                0x00000000        0x4 STM32F4xx_StdPeriph_Driver\stm32f4xx_tim.o
 .text.TIM_SetIC1Prescaler
                0x00000000       0x18 STM32F4xx_StdPeriph_Driver\stm32f4xx_tim.o
 .text.TIM_SetIC2Prescaler
                0x00000000       0x1a STM32F4xx_StdPeriph_Driver\stm32f4xx_tim.o
 .text.TIM_PWMIConfig
                0x00000000       0x70 STM32F4xx_StdPeriph_Driver\stm32f4xx_tim.o
 .text.TIM_SetIC3Prescaler
                0x00000000       0x18 STM32F4xx_StdPeriph_Driver\stm32f4xx_tim.o
 .text.TIM_SetIC4Prescaler
                0x00000000       0x1a STM32F4xx_StdPeriph_Driver\stm32f4xx_tim.o
 .text.TIM_ICInit
                0x00000000       0xcc STM32F4xx_StdPeriph_Driver\stm32f4xx_tim.o
 .text.TIM_BDTRConfig
                0x00000000       0x24 STM32F4xx_StdPeriph_Driver\stm32f4xx_tim.o
 .text.TIM_BDTRStructInit
                0x00000000       0x12 STM32F4xx_StdPeriph_Driver\stm32f4xx_tim.o
 .text.TIM_CtrlPWMOutputs
                0x00000000       0x20 STM32F4xx_StdPeriph_Driver\stm32f4xx_tim.o
 .text.TIM_SelectCOM
                0x00000000       0x1a STM32F4xx_StdPeriph_Driver\stm32f4xx_tim.o
 .text.TIM_CCPreloadControl
                0x00000000       0x1a STM32F4xx_StdPeriph_Driver\stm32f4xx_tim.o
 .text.TIM_GenerateEvent
                0x00000000        0x4 STM32F4xx_StdPeriph_Driver\stm32f4xx_tim.o
 .text.TIM_GetFlagStatus
                0x00000000        0xc STM32F4xx_StdPeriph_Driver\stm32f4xx_tim.o
 .text.TIM_ClearFlag
                0x00000000        0x8 STM32F4xx_StdPeriph_Driver\stm32f4xx_tim.o
 .text.TIM_DMAConfig
                0x00000000        0x8 STM32F4xx_StdPeriph_Driver\stm32f4xx_tim.o
 .text.TIM_DMACmd
                0x00000000       0x16 STM32F4xx_StdPeriph_Driver\stm32f4xx_tim.o
 .text.TIM_SelectCCDMA
                0x00000000       0x1a STM32F4xx_StdPeriph_Driver\stm32f4xx_tim.o
 .text.TIM_InternalClockConfig
                0x00000000        0xe STM32F4xx_StdPeriph_Driver\stm32f4xx_tim.o
 .text.TIM_SelectInputTrigger
                0x00000000       0x12 STM32F4xx_StdPeriph_Driver\stm32f4xx_tim.o
 .text.TIM_TIxExternalClockConfig
                0x00000000       0x2e STM32F4xx_StdPeriph_Driver\stm32f4xx_tim.o
 .text.TIM_ITRxExternalClockConfig
                0x00000000       0x14 STM32F4xx_StdPeriph_Driver\stm32f4xx_tim.o
 .text.TIM_SelectOutputTrigger
                0x00000000       0x18 STM32F4xx_StdPeriph_Driver\stm32f4xx_tim.o
 .text.TIM_SelectSlaveMode
                0x00000000       0x18 STM32F4xx_StdPeriph_Driver\stm32f4xx_tim.o
 .text.TIM_SelectMasterSlaveMode
                0x00000000       0x18 STM32F4xx_StdPeriph_Driver\stm32f4xx_tim.o
 .text.TIM_ETRConfig
                0x00000000       0x18 STM32F4xx_StdPeriph_Driver\stm32f4xx_tim.o
 .text.TIM_ETRClockMode2Config
                0x00000000       0x14 STM32F4xx_StdPeriph_Driver\stm32f4xx_tim.o
 .text.TIM_ETRClockMode1Config
                0x00000000       0x1a STM32F4xx_StdPeriph_Driver\stm32f4xx_tim.o
 .text.TIM_EncoderInterfaceConfig
                0x00000000       0x40 STM32F4xx_StdPeriph_Driver\stm32f4xx_tim.o
 .text.TIM_SelectHallSensor
                0x00000000       0x1a STM32F4xx_StdPeriph_Driver\stm32f4xx_tim.o
 .text.TIM_RemapConfig
                0x00000000        0x6 STM32F4xx_StdPeriph_Driver\stm32f4xx_tim.o
 .text          0x00000000        0x0 STM32F4xx_StdPeriph_Driver\stm32f4xx_syscfg.o
 .data          0x00000000        0x0 STM32F4xx_StdPeriph_Driver\stm32f4xx_syscfg.o
 .bss           0x00000000        0x0 STM32F4xx_StdPeriph_Driver\stm32f4xx_syscfg.o
 .text.SYSCFG_DeInit
                0x00000000       0x1a STM32F4xx_StdPeriph_Driver\stm32f4xx_syscfg.o
 .text.SYSCFG_MemoryRemapConfig
                0x00000000        0xc STM32F4xx_StdPeriph_Driver\stm32f4xx_syscfg.o
 .text.SYSCFG_ETH_MediaInterfaceConfig
                0x00000000        0xc STM32F4xx_StdPeriph_Driver\stm32f4xx_syscfg.o
 .text.SYSCFG_CompensationCellCmd
                0x00000000        0xc STM32F4xx_StdPeriph_Driver\stm32f4xx_syscfg.o
 .text.SYSCFG_GetCompensationCellStatus
                0x00000000       0x10 STM32F4xx_StdPeriph_Driver\stm32f4xx_syscfg.o
 .text          0x00000000        0x0 STM32F4xx_StdPeriph_Driver\stm32f4xx_spi.o
 .data          0x00000000        0x0 STM32F4xx_StdPeriph_Driver\stm32f4xx_spi.o
 .bss           0x00000000        0x0 STM32F4xx_StdPeriph_Driver\stm32f4xx_spi.o
 .text.SPI_StructInit
                0x00000000       0x18 STM32F4xx_StdPeriph_Driver\stm32f4xx_spi.o
 .text.I2S_StructInit
                0x00000000       0x12 STM32F4xx_StdPeriph_Driver\stm32f4xx_spi.o
 .text.SPI_DataSizeConfig
                0x00000000       0x18 STM32F4xx_StdPeriph_Driver\stm32f4xx_spi.o
 .text.SPI_BiDirectionalLineConfig
                0x00000000       0x1e STM32F4xx_StdPeriph_Driver\stm32f4xx_spi.o
 .text.SPI_NSSInternalSoftwareConfig
                0x00000000       0x20 STM32F4xx_StdPeriph_Driver\stm32f4xx_spi.o
 .text.SPI_SSOutputCmd
                0x00000000       0x1a STM32F4xx_StdPeriph_Driver\stm32f4xx_spi.o
 .text.SPI_TIModeCmd
                0x00000000       0x1a STM32F4xx_StdPeriph_Driver\stm32f4xx_spi.o
 .text.I2S_FullDuplexConfig
                0x00000000       0x4c STM32F4xx_StdPeriph_Driver\stm32f4xx_spi.o
 .text.SPI_CalculateCRC
                0x00000000       0x1a STM32F4xx_StdPeriph_Driver\stm32f4xx_spi.o
 .text.SPI_TransmitCRC
                0x00000000        0xc STM32F4xx_StdPeriph_Driver\stm32f4xx_spi.o
 .text.SPI_GetCRC
                0x00000000       0x10 STM32F4xx_StdPeriph_Driver\stm32f4xx_spi.o
 .text.SPI_GetCRCPolynomial
                0x00000000        0x6 STM32F4xx_StdPeriph_Driver\stm32f4xx_spi.o
 .text.SPI_I2S_ClearFlag
                0x00000000        0x8 STM32F4xx_StdPeriph_Driver\stm32f4xx_spi.o
 .text.SPI_I2S_ClearITPendingBit
                0x00000000       0x10 STM32F4xx_StdPeriph_Driver\stm32f4xx_spi.o
 .text          0x00000000        0x0 STM32F4xx_StdPeriph_Driver\stm32f4xx_rcc.o
 .data          0x00000000        0x0 STM32F4xx_StdPeriph_Driver\stm32f4xx_rcc.o
 .bss           0x00000000        0x0 STM32F4xx_StdPeriph_Driver\stm32f4xx_rcc.o
 .text.RCC_DeInit
                0x00000000       0x34 STM32F4xx_StdPeriph_Driver\stm32f4xx_rcc.o
 .text.RCC_HSEConfig
                0x00000000       0x10 STM32F4xx_StdPeriph_Driver\stm32f4xx_rcc.o
 .text.RCC_AdjustHSICalibrationValue
                0x00000000       0x14 STM32F4xx_StdPeriph_Driver\stm32f4xx_rcc.o
 .text.RCC_HSICmd
                0x00000000        0xc STM32F4xx_StdPeriph_Driver\stm32f4xx_rcc.o
 .text.RCC_LSEConfig
                0x00000000       0x20 STM32F4xx_StdPeriph_Driver\stm32f4xx_rcc.o
 .text.RCC_LSICmd
                0x00000000        0xc STM32F4xx_StdPeriph_Driver\stm32f4xx_rcc.o
 .text.RCC_PLLConfig
                0x00000000       0x20 STM32F4xx_StdPeriph_Driver\stm32f4xx_rcc.o
 .text.RCC_PLLCmd
                0x00000000        0xc STM32F4xx_StdPeriph_Driver\stm32f4xx_rcc.o
 .text.RCC_PLLI2SConfig
                0x00000000       0x14 STM32F4xx_StdPeriph_Driver\stm32f4xx_rcc.o
 .text.RCC_PLLI2SCmd
                0x00000000        0xc STM32F4xx_StdPeriph_Driver\stm32f4xx_rcc.o
 .text.RCC_ClockSecuritySystemCmd
                0x00000000        0xc STM32F4xx_StdPeriph_Driver\stm32f4xx_rcc.o
 .text.RCC_MCO1Config
                0x00000000       0x18 STM32F4xx_StdPeriph_Driver\stm32f4xx_rcc.o
 .text.RCC_MCO2Config
                0x00000000       0x18 STM32F4xx_StdPeriph_Driver\stm32f4xx_rcc.o
 .text.RCC_SYSCLKConfig
                0x00000000       0x14 STM32F4xx_StdPeriph_Driver\stm32f4xx_rcc.o
 .text.RCC_GetSYSCLKSource
                0x00000000       0x10 STM32F4xx_StdPeriph_Driver\stm32f4xx_rcc.o
 .text.RCC_HCLKConfig
                0x00000000       0x14 STM32F4xx_StdPeriph_Driver\stm32f4xx_rcc.o
 .text.RCC_PCLK1Config
                0x00000000       0x14 STM32F4xx_StdPeriph_Driver\stm32f4xx_rcc.o
 .text.RCC_PCLK2Config
                0x00000000       0x14 STM32F4xx_StdPeriph_Driver\stm32f4xx_rcc.o
 .text.RCC_RTCCLKConfig
                0x00000000       0x30 STM32F4xx_StdPeriph_Driver\stm32f4xx_rcc.o
 .text.RCC_RTCCLKCmd
                0x00000000        0xc STM32F4xx_StdPeriph_Driver\stm32f4xx_rcc.o
 .text.RCC_BackupResetCmd
                0x00000000        0xc STM32F4xx_StdPeriph_Driver\stm32f4xx_rcc.o
 .text.RCC_I2SCLKConfig
                0x00000000        0xc STM32F4xx_StdPeriph_Driver\stm32f4xx_rcc.o
 .text.RCC_AHB3PeriphClockCmd
                0x00000000       0x18 STM32F4xx_StdPeriph_Driver\stm32f4xx_rcc.o
 .text.RCC_AHB1PeriphResetCmd
                0x00000000       0x18 STM32F4xx_StdPeriph_Driver\stm32f4xx_rcc.o
 .text.RCC_AHB2PeriphResetCmd
                0x00000000       0x18 STM32F4xx_StdPeriph_Driver\stm32f4xx_rcc.o
 .text.RCC_AHB3PeriphResetCmd
                0x00000000       0x18 STM32F4xx_StdPeriph_Driver\stm32f4xx_rcc.o
 .text.RCC_AHB1PeriphClockLPModeCmd
                0x00000000       0x18 STM32F4xx_StdPeriph_Driver\stm32f4xx_rcc.o
 .text.RCC_AHB2PeriphClockLPModeCmd
                0x00000000       0x18 STM32F4xx_StdPeriph_Driver\stm32f4xx_rcc.o
 .text.RCC_AHB3PeriphClockLPModeCmd
                0x00000000       0x18 STM32F4xx_StdPeriph_Driver\stm32f4xx_rcc.o
 .text.RCC_APB1PeriphClockLPModeCmd
                0x00000000       0x18 STM32F4xx_StdPeriph_Driver\stm32f4xx_rcc.o
 .text.RCC_APB2PeriphClockLPModeCmd
                0x00000000       0x18 STM32F4xx_StdPeriph_Driver\stm32f4xx_rcc.o
 .text.RCC_ITConfig
                0x00000000       0x18 STM32F4xx_StdPeriph_Driver\stm32f4xx_rcc.o
 .text.RCC_GetFlagStatus
                0x00000000       0x28 STM32F4xx_StdPeriph_Driver\stm32f4xx_rcc.o
 .text.RCC_WaitForHSEStartUp
                0x00000000       0x2c STM32F4xx_StdPeriph_Driver\stm32f4xx_rcc.o
 .text.RCC_ClearFlag
                0x00000000       0x10 STM32F4xx_StdPeriph_Driver\stm32f4xx_rcc.o
 .text.RCC_GetITStatus
                0x00000000       0x14 STM32F4xx_StdPeriph_Driver\stm32f4xx_rcc.o
 .text.RCC_ClearITPendingBit
                0x00000000        0xc STM32F4xx_StdPeriph_Driver\stm32f4xx_rcc.o
 .text          0x00000000        0x0 STM32F4xx_StdPeriph_Driver\stm32f4xx_i2c.o
 .data          0x00000000        0x0 STM32F4xx_StdPeriph_Driver\stm32f4xx_i2c.o
 .bss           0x00000000        0x0 STM32F4xx_StdPeriph_Driver\stm32f4xx_i2c.o
 .text.I2C_StructInit
                0x00000000       0x1c STM32F4xx_StdPeriph_Driver\stm32f4xx_i2c.o
 .text.I2C_OwnAddress2Config
                0x00000000       0x16 STM32F4xx_StdPeriph_Driver\stm32f4xx_i2c.o
 .text.I2C_DualAddressCmd
                0x00000000       0x1a STM32F4xx_StdPeriph_Driver\stm32f4xx_i2c.o
 .text.I2C_GeneralCallCmd
                0x00000000       0x1a STM32F4xx_StdPeriph_Driver\stm32f4xx_i2c.o
 .text.I2C_SoftwareResetCmd
                0x00000000       0x1a STM32F4xx_StdPeriph_Driver\stm32f4xx_i2c.o
 .text.I2C_StretchClockCmd
                0x00000000       0x1a STM32F4xx_StdPeriph_Driver\stm32f4xx_i2c.o
 .text.I2C_FastModeDutyCycleConfig
                0x00000000       0x1e STM32F4xx_StdPeriph_Driver\stm32f4xx_i2c.o
 .text.I2C_NACKPositionConfig
                0x00000000       0x1e STM32F4xx_StdPeriph_Driver\stm32f4xx_i2c.o
 .text.I2C_SMBusAlertConfig
                0x00000000       0x1e STM32F4xx_StdPeriph_Driver\stm32f4xx_i2c.o
 .text.I2C_ARPCmd
                0x00000000       0x1a STM32F4xx_StdPeriph_Driver\stm32f4xx_i2c.o
 .text.I2C_TransmitPEC
                0x00000000       0x1a STM32F4xx_StdPeriph_Driver\stm32f4xx_i2c.o
 .text.I2C_PECPositionConfig
                0x00000000       0x1e STM32F4xx_StdPeriph_Driver\stm32f4xx_i2c.o
 .text.I2C_CalculatePEC
                0x00000000       0x1a STM32F4xx_StdPeriph_Driver\stm32f4xx_i2c.o
 .text.I2C_GetPEC
                0x00000000        0x8 STM32F4xx_StdPeriph_Driver\stm32f4xx_i2c.o
 .text.I2C_DMACmd
                0x00000000       0x1a STM32F4xx_StdPeriph_Driver\stm32f4xx_i2c.o
 .text.I2C_DMALastTransferCmd
                0x00000000       0x1a STM32F4xx_StdPeriph_Driver\stm32f4xx_i2c.o
 .text.I2C_ReadRegister
                0x00000000       0x18 STM32F4xx_StdPeriph_Driver\stm32f4xx_i2c.o
 .text.I2C_ITConfig
                0x00000000       0x16 STM32F4xx_StdPeriph_Driver\stm32f4xx_i2c.o
 .text.I2C_GetLastEvent
                0x00000000       0x10 STM32F4xx_StdPeriph_Driver\stm32f4xx_i2c.o
 .text.I2C_GetITStatus
                0x00000000       0x1c STM32F4xx_StdPeriph_Driver\stm32f4xx_i2c.o
 .text.I2C_ClearITPendingBit
                0x00000000        0x8 STM32F4xx_StdPeriph_Driver\stm32f4xx_i2c.o
 .text          0x00000000        0x0 STM32F4xx_StdPeriph_Driver\stm32f4xx_gpio.o
 .data          0x00000000        0x0 STM32F4xx_StdPeriph_Driver\stm32f4xx_gpio.o
 .bss           0x00000000        0x0 STM32F4xx_StdPeriph_Driver\stm32f4xx_gpio.o
 .text.GPIO_DeInit
                0x00000000       0xd8 STM32F4xx_StdPeriph_Driver\stm32f4xx_gpio.o
 .text.GPIO_StructInit
                0x00000000       0x12 STM32F4xx_StdPeriph_Driver\stm32f4xx_gpio.o
 .text.GPIO_PinLockConfig
                0x00000000       0x26 STM32F4xx_StdPeriph_Driver\stm32f4xx_gpio.o
 .text.GPIO_ReadInputDataBit
                0x00000000        0xc STM32F4xx_StdPeriph_Driver\stm32f4xx_gpio.o
 .text.GPIO_ReadInputData
                0x00000000        0x6 STM32F4xx_StdPeriph_Driver\stm32f4xx_gpio.o
 .text.GPIO_ReadOutputDataBit
                0x00000000        0xc STM32F4xx_StdPeriph_Driver\stm32f4xx_gpio.o
 .text.GPIO_ReadOutputData
                0x00000000        0x6 STM32F4xx_StdPeriph_Driver\stm32f4xx_gpio.o
 .text.GPIO_Write
                0x00000000        0x4 STM32F4xx_StdPeriph_Driver\stm32f4xx_gpio.o
 .text.GPIO_ToggleBits
                0x00000000        0xa STM32F4xx_StdPeriph_Driver\stm32f4xx_gpio.o
 .text          0x00000000        0x0 STM32F4xx_StdPeriph_Driver\stm32f4xx_flash.o
 .data          0x00000000        0x0 STM32F4xx_StdPeriph_Driver\stm32f4xx_flash.o
 .bss           0x00000000        0x0 STM32F4xx_StdPeriph_Driver\stm32f4xx_flash.o
 .text.FLASH_SetLatency
                0x00000000        0xc STM32F4xx_StdPeriph_Driver\stm32f4xx_flash.o
 .text.FLASH_PrefetchBufferCmd
                0x00000000       0x1c STM32F4xx_StdPeriph_Driver\stm32f4xx_flash.o
 .text.FLASH_InstructionCacheCmd
                0x00000000       0x1c STM32F4xx_StdPeriph_Driver\stm32f4xx_flash.o
 .text.FLASH_DataCacheCmd
                0x00000000       0x1c STM32F4xx_StdPeriph_Driver\stm32f4xx_flash.o
 .text.FLASH_InstructionCacheReset
                0x00000000       0x10 STM32F4xx_StdPeriph_Driver\stm32f4xx_flash.o
 .text.FLASH_DataCacheReset
                0x00000000       0x10 STM32F4xx_StdPeriph_Driver\stm32f4xx_flash.o
 .text.FLASH_Unlock
                0x00000000       0x20 STM32F4xx_StdPeriph_Driver\stm32f4xx_flash.o
 .text.FLASH_Lock
                0x00000000       0x10 STM32F4xx_StdPeriph_Driver\stm32f4xx_flash.o
 .text.FLASH_OB_Unlock
                0x00000000       0x20 STM32F4xx_StdPeriph_Driver\stm32f4xx_flash.o
 .text.FLASH_OB_Lock
                0x00000000       0x10 STM32F4xx_StdPeriph_Driver\stm32f4xx_flash.o
 .text.FLASH_OB_BORConfig
                0x00000000       0x18 STM32F4xx_StdPeriph_Driver\stm32f4xx_flash.o
 .text.FLASH_OB_GetUser
                0x00000000       0x10 STM32F4xx_StdPeriph_Driver\stm32f4xx_flash.o
 .text.FLASH_OB_GetWRP
                0x00000000        0xc STM32F4xx_StdPeriph_Driver\stm32f4xx_flash.o
 .text.FLASH_OB_GetRDP
                0x00000000       0x10 STM32F4xx_StdPeriph_Driver\stm32f4xx_flash.o
 .text.FLASH_OB_GetBOR
                0x00000000       0x10 STM32F4xx_StdPeriph_Driver\stm32f4xx_flash.o
 .text.FLASH_ITConfig
                0x00000000       0x18 STM32F4xx_StdPeriph_Driver\stm32f4xx_flash.o
 .text.FLASH_GetFlagStatus
                0x00000000       0x14 STM32F4xx_StdPeriph_Driver\stm32f4xx_flash.o
 .text.FLASH_ClearFlag
                0x00000000        0xc STM32F4xx_StdPeriph_Driver\stm32f4xx_flash.o
 .text.FLASH_GetStatus
                0x00000000       0x3c STM32F4xx_StdPeriph_Driver\stm32f4xx_flash.o
 .text.FLASH_WaitForLastOperation
                0x00000000       0x1e STM32F4xx_StdPeriph_Driver\stm32f4xx_flash.o
 .text.FLASH_OB_Launch
                0x00000000       0x14 STM32F4xx_StdPeriph_Driver\stm32f4xx_flash.o
 .text.FLASH_OB_UserConfig
                0x00000000       0x28 STM32F4xx_StdPeriph_Driver\stm32f4xx_flash.o
 .text.FLASH_OB_RDPConfig
                0x00000000       0x18 STM32F4xx_StdPeriph_Driver\stm32f4xx_flash.o
 .text.FLASH_OB_WRPConfig
                0x00000000       0x2c STM32F4xx_StdPeriph_Driver\stm32f4xx_flash.o
 .text.FLASH_ProgramByte
                0x00000000       0x38 STM32F4xx_StdPeriph_Driver\stm32f4xx_flash.o
 .text.FLASH_ProgramHalfWord
                0x00000000       0x3c STM32F4xx_StdPeriph_Driver\stm32f4xx_flash.o
 .text.FLASH_ProgramWord
                0x00000000       0x3c STM32F4xx_StdPeriph_Driver\stm32f4xx_flash.o
 .text.FLASH_ProgramDoubleWord
                0x00000000       0x40 STM32F4xx_StdPeriph_Driver\stm32f4xx_flash.o
 .text.FLASH_EraseAllSectors
                0x00000000       0x5c STM32F4xx_StdPeriph_Driver\stm32f4xx_flash.o
 .text.FLASH_EraseSector
                0x00000000       0x70 STM32F4xx_StdPeriph_Driver\stm32f4xx_flash.o
 .text          0x00000000        0x0 STM32F4xx_StdPeriph_Driver\stm32f4xx_exti.o
 .data          0x00000000        0x0 STM32F4xx_StdPeriph_Driver\stm32f4xx_exti.o
 .bss           0x00000000        0x0 STM32F4xx_StdPeriph_Driver\stm32f4xx_exti.o
 .text.EXTI_DeInit
                0x00000000       0x1c STM32F4xx_StdPeriph_Driver\stm32f4xx_exti.o
 .text.EXTI_StructInit
                0x00000000        0xe STM32F4xx_StdPeriph_Driver\stm32f4xx_exti.o
 .text.EXTI_GenerateSWInterrupt
                0x00000000       0x10 STM32F4xx_StdPeriph_Driver\stm32f4xx_exti.o
 .text.EXTI_GetFlagStatus
                0x00000000       0x14 STM32F4xx_StdPeriph_Driver\stm32f4xx_exti.o
 .text.EXTI_ClearFlag
                0x00000000        0xc STM32F4xx_StdPeriph_Driver\stm32f4xx_exti.o
 .text          0x00000000        0x0 STM32F4xx_StdPeriph_Driver\stm32f4xx_dma.o
 .data          0x00000000        0x0 STM32F4xx_StdPeriph_Driver\stm32f4xx_dma.o
 .bss           0x00000000        0x0 STM32F4xx_StdPeriph_Driver\stm32f4xx_dma.o
 .text.DMA_StructInit
                0x00000000       0x22 STM32F4xx_StdPeriph_Driver\stm32f4xx_dma.o
 .text.DMA_PeriphIncOffsetSizeConfig
                0x00000000       0x14 STM32F4xx_StdPeriph_Driver\stm32f4xx_dma.o
 .text.DMA_FlowControllerConfig
                0x00000000       0x14 STM32F4xx_StdPeriph_Driver\stm32f4xx_dma.o
 .text.DMA_SetCurrDataCounter
                0x00000000        0x4 STM32F4xx_StdPeriph_Driver\stm32f4xx_dma.o
 .text.DMA_GetCurrDataCounter
                0x00000000        0x6 STM32F4xx_StdPeriph_Driver\stm32f4xx_dma.o
 .text.DMA_DoubleBufferModeConfig
                0x00000000       0x16 STM32F4xx_StdPeriph_Driver\stm32f4xx_dma.o
 .text.DMA_DoubleBufferModeCmd
                0x00000000       0x14 STM32F4xx_StdPeriph_Driver\stm32f4xx_dma.o
 .text.DMA_MemoryTargetConfig
                0x00000000        0xa STM32F4xx_StdPeriph_Driver\stm32f4xx_dma.o
 .text.DMA_GetCurrentMemoryTarget
                0x00000000        0x8 STM32F4xx_StdPeriph_Driver\stm32f4xx_dma.o
 .text.DMA_GetFIFOStatus
                0x00000000        0x8 STM32F4xx_StdPeriph_Driver\stm32f4xx_dma.o
 .text.DMA_GetITStatus
                0x00000000       0x5c STM32F4xx_StdPeriph_Driver\stm32f4xx_dma.o
 .text.DMA_ClearITPendingBit
                0x00000000       0x30 STM32F4xx_StdPeriph_Driver\stm32f4xx_dma.o
 .text          0x00000000        0x0 STM32F4xx_StdPeriph_Driver\stm32f4xx_dac.o
 .data          0x00000000        0x0 STM32F4xx_StdPeriph_Driver\stm32f4xx_dac.o
 .bss           0x00000000        0x0 STM32F4xx_StdPeriph_Driver\stm32f4xx_dac.o
 .text.DAC_DeInit
                0x00000000       0x1a STM32F4xx_StdPeriph_Driver\stm32f4xx_dac.o
 .text.DAC_StructInit
                0x00000000        0xc STM32F4xx_StdPeriph_Driver\stm32f4xx_dac.o
 .text.DAC_SoftwareTriggerCmd
                0x00000000       0x20 STM32F4xx_StdPeriph_Driver\stm32f4xx_dac.o
 .text.DAC_DualSoftwareTriggerCmd
                0x00000000       0x1c STM32F4xx_StdPeriph_Driver\stm32f4xx_dac.o
 .text.DAC_WaveGenerationCmd
                0x00000000       0x1c STM32F4xx_StdPeriph_Driver\stm32f4xx_dac.o
 .text.DAC_SetChannel2Data
                0x00000000       0x20 STM32F4xx_StdPeriph_Driver\stm32f4xx_dac.o
 .text.DAC_SetDualChannelData
                0x00000000       0x18 STM32F4xx_StdPeriph_Driver\stm32f4xx_dac.o
 .text.DAC_GetDataOutputValue
                0x00000000       0x24 STM32F4xx_StdPeriph_Driver\stm32f4xx_dac.o
 .text.DAC_DMACmd
                0x00000000       0x20 STM32F4xx_StdPeriph_Driver\stm32f4xx_dac.o
 .text.DAC_ITConfig
                0x00000000       0x1c STM32F4xx_StdPeriph_Driver\stm32f4xx_dac.o
 .text.DAC_GetFlagStatus
                0x00000000       0x14 STM32F4xx_StdPeriph_Driver\stm32f4xx_dac.o
 .text.DAC_ClearFlag
                0x00000000        0xc STM32F4xx_StdPeriph_Driver\stm32f4xx_dac.o
 .text.DAC_GetITStatus
                0x00000000       0x1c STM32F4xx_StdPeriph_Driver\stm32f4xx_dac.o
 .text.DAC_ClearITPendingBit
                0x00000000        0xc STM32F4xx_StdPeriph_Driver\stm32f4xx_dac.o
 .text          0x00000000        0x0 STM32F4xx_StdPeriph_Driver\stm32f4xx_adc.o
 .data          0x00000000        0x0 STM32F4xx_StdPeriph_Driver\stm32f4xx_adc.o
 .bss           0x00000000        0x0 STM32F4xx_StdPeriph_Driver\stm32f4xx_adc.o
 .text.ADC_DeInit
                0x00000000       0x1a STM32F4xx_StdPeriph_Driver\stm32f4xx_adc.o
 .text.ADC_Init
                0x00000000       0x50 STM32F4xx_StdPeriph_Driver\stm32f4xx_adc.o
 .text.ADC_StructInit
                0x00000000       0x14 STM32F4xx_StdPeriph_Driver\stm32f4xx_adc.o
 .text.ADC_CommonInit
                0x00000000       0x2c STM32F4xx_StdPeriph_Driver\stm32f4xx_adc.o
 .text.ADC_CommonStructInit
                0x00000000        0xc STM32F4xx_StdPeriph_Driver\stm32f4xx_adc.o
 .text.ADC_Cmd  0x00000000       0x14 STM32F4xx_StdPeriph_Driver\stm32f4xx_adc.o
 .text.ADC_AnalogWatchdogCmd
                0x00000000       0x12 STM32F4xx_StdPeriph_Driver\stm32f4xx_adc.o
 .text.ADC_AnalogWatchdogThresholdsConfig
                0x00000000        0x6 STM32F4xx_StdPeriph_Driver\stm32f4xx_adc.o
 .text.ADC_AnalogWatchdogSingleChannelConfig
                0x00000000        0xe STM32F4xx_StdPeriph_Driver\stm32f4xx_adc.o
 .text.ADC_TempSensorVrefintCmd
                0x00000000       0x1c STM32F4xx_StdPeriph_Driver\stm32f4xx_adc.o
 .text.ADC_VBATCmd
                0x00000000       0x1c STM32F4xx_StdPeriph_Driver\stm32f4xx_adc.o
 .text.ADC_RegularChannelConfig
                0x00000000       0x8e STM32F4xx_StdPeriph_Driver\stm32f4xx_adc.o
 .text.ADC_SoftwareStartConv
                0x00000000        0xa STM32F4xx_StdPeriph_Driver\stm32f4xx_adc.o
 .text.ADC_GetSoftwareStartConvStatus
                0x00000000        0x8 STM32F4xx_StdPeriph_Driver\stm32f4xx_adc.o
 .text.ADC_EOCOnEachRegularChannelCmd
                0x00000000       0x14 STM32F4xx_StdPeriph_Driver\stm32f4xx_adc.o
 .text.ADC_ContinuousModeCmd
                0x00000000       0x14 STM32F4xx_StdPeriph_Driver\stm32f4xx_adc.o
 .text.ADC_DiscModeChannelCountConfig
                0x00000000       0x10 STM32F4xx_StdPeriph_Driver\stm32f4xx_adc.o
 .text.ADC_DiscModeCmd
                0x00000000       0x14 STM32F4xx_StdPeriph_Driver\stm32f4xx_adc.o
 .text.ADC_GetConversionValue
                0x00000000        0x6 STM32F4xx_StdPeriph_Driver\stm32f4xx_adc.o
 .text.ADC_GetMultiModeConversionValue
                0x00000000        0xc STM32F4xx_StdPeriph_Driver\stm32f4xx_adc.o
 .text.ADC_DMACmd
                0x00000000       0x14 STM32F4xx_StdPeriph_Driver\stm32f4xx_adc.o
 .text.ADC_DMARequestAfterLastTransferCmd
                0x00000000       0x14 STM32F4xx_StdPeriph_Driver\stm32f4xx_adc.o
 .text.ADC_MultiModeDMARequestAfterLastTransferCmd
                0x00000000       0x1c STM32F4xx_StdPeriph_Driver\stm32f4xx_adc.o
 .text.ADC_InjectedChannelConfig
                0x00000000       0x5c STM32F4xx_StdPeriph_Driver\stm32f4xx_adc.o
 .text.ADC_InjectedSequencerLengthConfig
                0x00000000       0x10 STM32F4xx_StdPeriph_Driver\stm32f4xx_adc.o
 .text.ADC_SetInjectedOffset
                0x00000000       0x16 STM32F4xx_StdPeriph_Driver\stm32f4xx_adc.o
 .text.ADC_ExternalTrigInjectedConvConfig
                0x00000000        0xe STM32F4xx_StdPeriph_Driver\stm32f4xx_adc.o
 .text.ADC_ExternalTrigInjectedConvEdgeConfig
                0x00000000        0xe STM32F4xx_StdPeriph_Driver\stm32f4xx_adc.o
 .text.ADC_SoftwareStartInjectedConv
                0x00000000        0xa STM32F4xx_StdPeriph_Driver\stm32f4xx_adc.o
 .text.ADC_GetSoftwareStartInjectedConvCmdStatus
                0x00000000        0x8 STM32F4xx_StdPeriph_Driver\stm32f4xx_adc.o
 .text.ADC_AutoInjectedConvCmd
                0x00000000       0x14 STM32F4xx_StdPeriph_Driver\stm32f4xx_adc.o
 .text.ADC_InjectedDiscModeCmd
                0x00000000       0x14 STM32F4xx_StdPeriph_Driver\stm32f4xx_adc.o
 .text.ADC_GetInjectedConversionValue
                0x00000000       0x1a STM32F4xx_StdPeriph_Driver\stm32f4xx_adc.o
 .text.ADC_ITConfig
                0x00000000       0x1a STM32F4xx_StdPeriph_Driver\stm32f4xx_adc.o
 .text.ADC_GetFlagStatus
                0x00000000        0xc STM32F4xx_StdPeriph_Driver\stm32f4xx_adc.o
 .text.ADC_ClearFlag
                0x00000000        0x6 STM32F4xx_StdPeriph_Driver\stm32f4xx_adc.o
 .text.ADC_GetITStatus
                0x00000000       0x1c STM32F4xx_StdPeriph_Driver\stm32f4xx_adc.o
 .text.ADC_ClearITPendingBit
                0x00000000        0x8 STM32F4xx_StdPeriph_Driver\stm32f4xx_adc.o
 .text          0x00000000        0x0 STM32F4xx_StdPeriph_Driver\misc.o
 .data          0x00000000        0x0 STM32F4xx_StdPeriph_Driver\misc.o
 .bss           0x00000000        0x0 STM32F4xx_StdPeriph_Driver\misc.o
 .text.NVIC_SystemLPConfig
                0x00000000       0x18 STM32F4xx_StdPeriph_Driver\misc.o
 .text.SysTick_CLKSourceConfig
                0x00000000       0x18 STM32F4xx_StdPeriph_Driver\misc.o
 .text          0x00000000        0x0 STM32F4-Discovery\stm32f4_discovery_lis302dl.o
 .data          0x00000000        0x0 STM32F4-Discovery\stm32f4_discovery_lis302dl.o
 .bss           0x00000000        0x0 STM32F4-Discovery\stm32f4_discovery_lis302dl.o
 .text.LIS302DL_RebootCmd
                0x00000000       0x28 STM32F4-Discovery\stm32f4_discovery_lis302dl.o
 .text.LIS302DL_FullScaleCmd
                0x00000000       0x2c STM32F4-Discovery\stm32f4_discovery_lis302dl.o
 .text.LIS302DL_DataRateCmd
                0x00000000       0x2c STM32F4-Discovery\stm32f4_discovery_lis302dl.o
 .text.LIS302DL_LowpowerCmd
                0x00000000       0x2c STM32F4-Discovery\stm32f4_discovery_lis302dl.o
 .text.LIS302DL_FilterConfig
                0x00000000       0x3c STM32F4-Discovery\stm32f4_discovery_lis302dl.o
 .text.LIS302DL_ReadACC
                0x00000000       0x4e STM32F4-Discovery\stm32f4_discovery_lis302dl.o
 .text          0x00000000        0x0 STM32F4-Discovery\stm32f4_discovery_audio_codec.o
 .data          0x00000000        0x0 STM32F4-Discovery\stm32f4_discovery_audio_codec.o
 .bss           0x00000000        0x0 STM32F4-Discovery\stm32f4_discovery_audio_codec.o
 .text.EVAL_AUDIO_DeInit
                0x00000000       0xcc STM32F4-Discovery\stm32f4_discovery_audio_codec.o
 .text.EVAL_AUDIO_VolumeCtl
                0x00000000       0x1a STM32F4-Discovery\stm32f4_discovery_audio_codec.o
 .text.EVAL_AUDIO_Mute
                0x00000000        0x4 STM32F4-Discovery\stm32f4_discovery_audio_codec.o
 .text.EVAL_AUDIO_Play
                0x00000000       0x4c STM32F4-Discovery\stm32f4_discovery_audio_codec.o
 .text          0x00000000        0x0 STM32F4-Discovery\stm32f4_discovery.o
 .data          0x00000000        0x0 STM32F4-Discovery\stm32f4_discovery.o
 .bss           0x00000000        0x0 STM32F4-Discovery\stm32f4_discovery.o
 .text.STM_EVAL_PBGetState
                0x00000000       0x20 STM32F4-Discovery\stm32f4_discovery.o
 COMMON         0x00000000        0x4 STM32F4-Discovery\stm32f4_discovery.o
 .text          0x00000000        0x0 FAT_FS\ff.o
 .data          0x00000000        0x0 FAT_FS\ff.o
 .bss           0x00000000        0x0 FAT_FS\ff.o
 .text.get_fileinfo
                0x00000000       0x82 FAT_FS\ff.o
 .text.f_readdir
                0x00000000       0x54 FAT_FS\ff.o
 .text.f_stat   0x00000000       0x40 FAT_FS\ff.o
 .text.f_getfree
                0x00000000       0xea FAT_FS\ff.o
 .text.f_truncate
                0x00000000       0x96 FAT_FS\ff.o
 .text.f_mkdir  0x00000000      0x1c8 FAT_FS\ff.o
 .text.f_chmod  0x00000000       0x50 FAT_FS\ff.o
 .text.f_utime  0x00000000       0x50 FAT_FS\ff.o
 .text.f_rename
                0x00000000      0x100 FAT_FS\ff.o
 .text.f_mkfs   0x00000000      0x5ac FAT_FS\ff.o
 .text.f_gets   0x00000000       0x46 FAT_FS\ff.o
 .text.f_putc   0x00000000       0x30 FAT_FS\ff.o
 .text.f_puts   0x00000000       0x26 FAT_FS\ff.o
 .text.f_printf
                0x00000000      0x160 FAT_FS\ff.o
 .rodata.cstbl.6476
                0x00000000       0x16 FAT_FS\ff.o
 .rodata.sstbl.6475
                0x00000000       0x2c FAT_FS\ff.o
 .text          0x00000000        0x0 FAT_FS\fattime.o
 .data          0x00000000        0x0 FAT_FS\fattime.o
 .bss           0x00000000        0x0 FAT_FS\fattime.o
 .text          0x00000000        0x0 ../../../../../Utilities/STM32F4-Discovery\libPDMFilter_GCC.a(pdm_filter.o)
 .data          0x00000000        0x0 ../../../../../Utilities/STM32F4-Discovery\libPDMFilter_GCC.a(pdm_filter.o)
 .bss           0x00000000        0x0 ../../../../../Utilities/STM32F4-Discovery\libPDMFilter_GCC.a(pdm_filter.o)
 .text.PDM_Filter_80_LSB
                0x00000000      0x2e4 ../../../../../Utilities/STM32F4-Discovery\libPDMFilter_GCC.a(pdm_filter.o)
 .text.PDM_Filter_64_MSB
                0x00000000      0x2e4 ../../../../../Utilities/STM32F4-Discovery\libPDMFilter_GCC.a(pdm_filter.o)
 .text.PDM_Filter_80_MSB
                0x00000000      0x330 ../../../../../Utilities/STM32F4-Discovery\libPDMFilter_GCC.a(pdm_filter.o)
 .data          0x00000000        0x0 c:/program files/atollic/truestudio for stmicroelectronics stm32 lite 2.2.0/armtools/bin/../lib/gcc/arm-atollic-eabi/4.5.1/thumb/thumb2\libgcc.a(_arm_addsubdf3.o)
 .bss           0x00000000        0x0 c:/program files/atollic/truestudio for stmicroelectronics stm32 lite 2.2.0/armtools/bin/../lib/gcc/arm-atollic-eabi/4.5.1/thumb/thumb2\libgcc.a(_arm_addsubdf3.o)
 .data          0x00000000        0x0 c:/program files/atollic/truestudio for stmicroelectronics stm32 lite 2.2.0/armtools/bin/../lib/gcc/arm-atollic-eabi/4.5.1/thumb/thumb2\libgcc.a(_arm_muldivdf3.o)
 .bss           0x00000000        0x0 c:/program files/atollic/truestudio for stmicroelectronics stm32 lite 2.2.0/armtools/bin/../lib/gcc/arm-atollic-eabi/4.5.1/thumb/thumb2\libgcc.a(_arm_muldivdf3.o)
 .data          0x00000000        0x0 c:/program files/atollic/truestudio for stmicroelectronics stm32 lite 2.2.0/armtools/bin/../lib/gcc/arm-atollic-eabi/4.5.1/thumb/thumb2\libgcc.a(_arm_fixunsdfsi.o)
 .bss           0x00000000        0x0 c:/program files/atollic/truestudio for stmicroelectronics stm32 lite 2.2.0/armtools/bin/../lib/gcc/arm-atollic-eabi/4.5.1/thumb/thumb2\libgcc.a(_arm_fixunsdfsi.o)
 .data          0x00000000        0x0 c:/program files/atollic/truestudio for stmicroelectronics stm32 lite 2.2.0/armtools/bin/../lib/gcc/arm-atollic-eabi/4.5.1/thumb/thumb2\libgcc.a(_arm_muldivsf3.o)
 .bss           0x00000000        0x0 c:/program files/atollic/truestudio for stmicroelectronics stm32 lite 2.2.0/armtools/bin/../lib/gcc/arm-atollic-eabi/4.5.1/thumb/thumb2\libgcc.a(_arm_muldivsf3.o)
 .data          0x00000000        0x0 c:/program files/atollic/truestudio for stmicroelectronics stm32 lite 2.2.0/armtools/bin/../lib/gcc/arm-atollic-eabi/4.5.1/thumb/thumb2\libgcc.a(_arm_cmpsf2.o)
 .bss           0x00000000        0x0 c:/program files/atollic/truestudio for stmicroelectronics stm32 lite 2.2.0/armtools/bin/../lib/gcc/arm-atollic-eabi/4.5.1/thumb/thumb2\libgcc.a(_arm_cmpsf2.o)
 .text          0x00000000        0x0 c:/program files/atollic/truestudio for stmicroelectronics stm32 lite 2.2.0/armtools/bin/../lib/gcc/arm-atollic-eabi/4.5.1/../../../../arm-atollic-eabi/lib/thumb/thumb2\libc.a(lib_a-init.o)
 .data          0x00000000        0x0 c:/program files/atollic/truestudio for stmicroelectronics stm32 lite 2.2.0/armtools/bin/../lib/gcc/arm-atollic-eabi/4.5.1/../../../../arm-atollic-eabi/lib/thumb/thumb2\libc.a(lib_a-init.o)
 .bss           0x00000000        0x0 c:/program files/atollic/truestudio for stmicroelectronics stm32 lite 2.2.0/armtools/bin/../lib/gcc/arm-atollic-eabi/4.5.1/../../../../arm-atollic-eabi/lib/thumb/thumb2\libc.a(lib_a-init.o)
 .text          0x00000000        0x0 c:/program files/atollic/truestudio for stmicroelectronics stm32 lite 2.2.0/armtools/bin/../lib/gcc/arm-atollic-eabi/4.5.1/thumb/thumb2/crtend.o
 .data          0x00000000        0x0 c:/program files/atollic/truestudio for stmicroelectronics stm32 lite 2.2.0/armtools/bin/../lib/gcc/arm-atollic-eabi/4.5.1/thumb/thumb2/crtend.o
 .bss           0x00000000        0x0 c:/program files/atollic/truestudio for stmicroelectronics stm32 lite 2.2.0/armtools/bin/../lib/gcc/arm-atollic-eabi/4.5.1/thumb/thumb2/crtend.o
 .jcr           0x00000000        0x4 c:/program files/atollic/truestudio for stmicroelectronics stm32 lite 2.2.0/armtools/bin/../lib/gcc/arm-atollic-eabi/4.5.1/thumb/thumb2/crtend.o
 .text          0x00000000        0x0 c:/program files/atollic/truestudio for stmicroelectronics stm32 lite 2.2.0/armtools/bin/../lib/gcc/arm-atollic-eabi/4.5.1/thumb/thumb2/crtn.o
 .data          0x00000000        0x0 c:/program files/atollic/truestudio for stmicroelectronics stm32 lite 2.2.0/armtools/bin/../lib/gcc/arm-atollic-eabi/4.5.1/thumb/thumb2/crtn.o
 .bss           0x00000000        0x0 c:/program files/atollic/truestudio for stmicroelectronics stm32 lite 2.2.0/armtools/bin/../lib/gcc/arm-atollic-eabi/4.5.1/thumb/thumb2/crtn.o

Memory Configuration

Name             Origin             Length             Attributes
FLASH            0x08000000         0x00100000         xr
RAM              0x20000000         0x0001c000         xrw
MEMORY_B1        0x60000000         0x00000000         xr
*default*        0x00000000         0xffffffff

Linker script and memory map

LOAD c:/program files/atollic/truestudio for stmicroelectronics stm32 lite 2.2.0/armtools/bin/../lib/gcc/arm-atollic-eabi/4.5.1/thumb/thumb2/crti.o
LOAD c:/program files/atollic/truestudio for stmicroelectronics stm32 lite 2.2.0/armtools/bin/../lib/gcc/arm-atollic-eabi/4.5.1/thumb/thumb2/crtbegin.o
LOAD User\waverecorder.o
LOAD User\waveplayer.o
LOAD User\usbh_usr.o
LOAD User\usb_bsp.o
LOAD User\system_stm32f4xx.o
LOAD User\stm32f4xx_it.o
LOAD User\main.o
LOAD TrueSTUDIO\startup_stm32f4xx.o
LOAD STM32_USB_OTG_Driver\usb_hcd_int.o
LOAD STM32_USB_OTG_Driver\usb_hcd.o
LOAD STM32_USB_OTG_Driver\usb_core.o
LOAD STM32_USB_HOST_Library\Core\usbh_stdreq.o
LOAD STM32_USB_HOST_Library\Core\usbh_ioreq.o
LOAD STM32_USB_HOST_Library\Core\usbh_hcs.o
LOAD STM32_USB_HOST_Library\Core\usbh_core.o
LOAD STM32_USB_HOST_Library\Class\MSC\usbh_msc_scsi.o
LOAD STM32_USB_HOST_Library\Class\MSC\usbh_msc_fatfs.o
LOAD STM32_USB_HOST_Library\Class\MSC\usbh_msc_core.o
LOAD STM32_USB_HOST_Library\Class\MSC\usbh_msc_bot.o
LOAD STM32F4xx_StdPeriph_Driver\stm32f4xx_tim.o
LOAD STM32F4xx_StdPeriph_Driver\stm32f4xx_syscfg.o
LOAD STM32F4xx_StdPeriph_Driver\stm32f4xx_spi.o
LOAD STM32F4xx_StdPeriph_Driver\stm32f4xx_rcc.o
LOAD STM32F4xx_StdPeriph_Driver\stm32f4xx_i2c.o
LOAD STM32F4xx_StdPeriph_Driver\stm32f4xx_gpio.o
LOAD STM32F4xx_StdPeriph_Driver\stm32f4xx_flash.o
LOAD STM32F4xx_StdPeriph_Driver\stm32f4xx_exti.o
LOAD STM32F4xx_StdPeriph_Driver\stm32f4xx_dma.o
LOAD STM32F4xx_StdPeriph_Driver\stm32f4xx_dac.o
LOAD STM32F4xx_StdPeriph_Driver\stm32f4xx_adc.o
LOAD STM32F4xx_StdPeriph_Driver\misc.o
LOAD STM32F4-Discovery\stm32f4_discovery_lis302dl.o
LOAD STM32F4-Discovery\stm32f4_discovery_audio_codec.o
LOAD STM32F4-Discovery\stm32f4_discovery.o
LOAD FAT_FS\ff.o
LOAD FAT_FS\fattime.o
LOAD ../../../../../Utilities/STM32F4-Discovery\libPDMFilter_GCC.a
                0x00001000                malloc_getpagesize_P = 0x1000
START GROUP
LOAD c:/program files/atollic/truestudio for stmicroelectronics stm32 lite 2.2.0/armtools/bin/../lib/gcc/arm-atollic-eabi/4.5.1/thumb/thumb2\libgcc.a
LOAD c:/program files/atollic/truestudio for stmicroelectronics stm32 lite 2.2.0/armtools/bin/../lib/gcc/arm-atollic-eabi/4.5.1/../../../../arm-atollic-eabi/lib/thumb/thumb2\libc.a
END GROUP
LOAD c:/program files/atollic/truestudio for stmicroelectronics stm32 lite 2.2.0/armtools/bin/../lib/gcc/arm-atollic-eabi/4.5.1/thumb/thumb2/crtend.o
LOAD c:/program files/atollic/truestudio for stmicroelectronics stm32 lite 2.2.0/armtools/bin/../lib/gcc/arm-atollic-eabi/4.5.1/thumb/thumb2/crtn.o
                0x2001c000                _estack = 0x2001c000
                0x00000000                _Min_Heap_Size = 0x0
                0x00000400                _Min_Stack_Size = 0x400

.isr_vector     0x08000000      0x188
                0x08000000                . = ALIGN (0x4)
 *(.isr_vector)
 .isr_vector    0x08000000      0x188 TrueSTUDIO\startup_stm32f4xx.o
                0x08000000                g_pfnVectors
                0x08000188                . = ALIGN (0x4)

.text           0x08000188     0x83dc
                0x08000188                . = ALIGN (0x4)
 *(.text)
 .text          0x08000188       0x30 c:/program files/atollic/truestudio for stmicroelectronics stm32 lite 2.2.0/armtools/bin/../lib/gcc/arm-atollic-eabi/4.5.1/thumb/thumb2/crtbegin.o
 .text          0x080001b8      0x370 c:/program files/atollic/truestudio for stmicroelectronics stm32 lite 2.2.0/armtools/bin/../lib/gcc/arm-atollic-eabi/4.5.1/thumb/thumb2\libgcc.a(_arm_addsubdf3.o)
                0x080001b8                __aeabi_drsub
                0x080001c0                __aeabi_dsub
                0x080001c0                __subdf3
                0x080001c4                __aeabi_dadd
                0x080001c4                __adddf3
                0x0800043c                __floatunsidf
                0x0800043c                __aeabi_ui2d
                0x0800045c                __floatsidf
                0x0800045c                __aeabi_i2d
                0x08000480                __aeabi_f2d
                0x08000480                __extendsfdf2
                0x080004bc                __floatundidf
                0x080004bc                __aeabi_ul2d
                0x080004cc                __floatdidf
                0x080004cc                __aeabi_l2d
 .text          0x08000528      0x424 c:/program files/atollic/truestudio for stmicroelectronics stm32 lite 2.2.0/armtools/bin/../lib/gcc/arm-atollic-eabi/4.5.1/thumb/thumb2\libgcc.a(_arm_muldivdf3.o)
                0x08000528                __aeabi_dmul
                0x08000528                __muldf3
                0x0800077c                __divdf3
                0x0800077c                __aeabi_ddiv
 .text          0x0800094c       0x40 c:/program files/atollic/truestudio for stmicroelectronics stm32 lite 2.2.0/armtools/bin/../lib/gcc/arm-atollic-eabi/4.5.1/thumb/thumb2\libgcc.a(_arm_fixunsdfsi.o)
                0x0800094c                __aeabi_d2uiz
                0x0800094c                __fixunsdfsi
 .text          0x0800098c      0x2a0 c:/program files/atollic/truestudio for stmicroelectronics stm32 lite 2.2.0/armtools/bin/../lib/gcc/arm-atollic-eabi/4.5.1/thumb/thumb2\libgcc.a(_arm_muldivsf3.o)
                0x0800098c                __mulsf3
                0x0800098c                __aeabi_fmul
                0x08000af4                __aeabi_fdiv
                0x08000af4                __divsf3
 .text          0x08000c2c       0xec c:/program files/atollic/truestudio for stmicroelectronics stm32 lite 2.2.0/armtools/bin/../lib/gcc/arm-atollic-eabi/4.5.1/thumb/thumb2\libgcc.a(_arm_cmpsf2.o)
                0x08000c2c                __gesf2
                0x08000c2c                __gtsf2
                0x08000c34                __lesf2
                0x08000c34                __ltsf2
                0x08000c3c                __nesf2
                0x08000c3c                __eqsf2
                0x08000c3c                __cmpsf2
                0x08000c9c                __aeabi_cfrcmple
                0x08000ca4                __aeabi_cfcmpeq
                0x08000ca4                __aeabi_cfcmple
                0x08000cb4                __aeabi_fcmpeq
                0x08000cc8                __aeabi_fcmplt
                0x08000cdc                __aeabi_fcmple
                0x08000cf0                __aeabi_fcmpge
                0x08000d04                __aeabi_fcmpgt
 *(.text*)
 .text.WaveRecorderInit
                0x08000d18      0x134 User\waverecorder.o
                0x08000d18                WaveRecorderInit
 .text.WaveRecorderStart
                0x08000e4c       0x3c User\waverecorder.o
                0x08000e4c                WaveRecorderStart
 .text.WaveRecorderStop
                0x08000e88       0x20 User\waverecorder.o
                0x08000e88                WaveRecorderStop
 .text.SPI2_IRQHandler
                0x08000ea8       0x5c User\waverecorder.o
                0x08000ea8                SPI2_IRQHandler
 .text.WavaRecorderHeaderInit
                0x08000f04       0xbc User\waverecorder.o
                0x08000f04                WavaRecorderHeaderInit
 .text.WaveRecorderUpdate
                0x08000fc0      0x244 User\waverecorder.o
                0x08000fc0                WaveRecorderUpdate
 .text.WavePlayerPauseResume
                0x08001204        0x4 User\waveplayer.o
                0x08001204                WavePlayerPauseResume
 .text.WavePlayerStop
                0x08001208        0x6 User\waveplayer.o
                0x08001208                WavePlayerStop
 *fill*         0x0800120e        0x2 00
 .text.WavePlayerInit
                0x08001210      0x150 User\waveplayer.o
                0x08001210                WavePlayerInit
 .text.WavePlayBack
                0x08001360      0x15c User\waveplayer.o
                0x08001360                WavePlayBack
 .text.LIS302DL_TIMEOUT_UserCallback
                0x080014bc        0x2 User\waveplayer.o
                0x080014bc                LIS302DL_TIMEOUT_UserCallback
 *fill*         0x080014be        0x2 00
 .text.EVAL_AUDIO_TransferComplete_CallBack
                0x080014c0       0x2c User\waveplayer.o
                0x080014c0                EVAL_AUDIO_TransferComplete_CallBack
 .text.EVAL_AUDIO_GetSampleCallBack
                0x080014ec        0x4 User\waveplayer.o
                0x080014ec                EVAL_AUDIO_GetSampleCallBack
 .text.Codec_TIMEOUT_UserCallback
                0x080014f0        0x4 User\waveplayer.o
                0x080014f0                Codec_TIMEOUT_UserCallback
 .text.Delay    0x080014f4       0x18 User\waveplayer.o
                0x080014f4                Delay
 .text.TimingDelay_Decrement
                0x0800150c       0x14 User\waveplayer.o
                0x0800150c                TimingDelay_Decrement
 .text.WavePlayer_CallBack
                0x08001520       0x6c User\waveplayer.o
                0x08001520                WavePlayer_CallBack
 .text.ReadUnit
                0x0800158c       0x24 User\waveplayer.o
                0x0800158c                ReadUnit
 .text.WavePlayerStart
                0x080015b0      0x238 User\waveplayer.o
                0x080015b0                WavePlayerStart
 .text.USBH_USR_Init
                0x080017e8        0x2 User\usbh_usr.o
                0x080017e8                USBH_USR_Init
 .text.USBH_USR_UnrecoveredError
                0x080017ea        0x2 User\usbh_usr.o
                0x080017ea                USBH_USR_UnrecoveredError
 .text.USBH_USR_ResetDevice
                0x080017ec        0x2 User\usbh_usr.o
                0x080017ec                USBH_USR_ResetDevice
 .text.USBH_USR_DeviceSpeedDetected
                0x080017ee        0x2 User\usbh_usr.o
                0x080017ee                USBH_USR_DeviceSpeedDetected
 .text.USBH_USR_Device_DescAvailable
                0x080017f0        0x2 User\usbh_usr.o
                0x080017f0                USBH_USR_Device_DescAvailable
 .text.USBH_USR_DeviceAddressAssigned
                0x080017f2        0x2 User\usbh_usr.o
                0x080017f2                USBH_USR_DeviceAddressAssigned
 .text.USBH_USR_Configuration_DescAvailable
                0x080017f4        0x2 User\usbh_usr.o
                0x080017f4                USBH_USR_Configuration_DescAvailable
 .text.USBH_USR_Manufacturer_String
                0x080017f6        0x2 User\usbh_usr.o
                0x080017f6                USBH_USR_Manufacturer_String
 .text.USBH_USR_Product_String
                0x080017f8        0x2 User\usbh_usr.o
                0x080017f8                USBH_USR_Product_String
 .text.USBH_USR_SerialNum_String
                0x080017fa        0x2 User\usbh_usr.o
                0x080017fa                USBH_USR_SerialNum_String
 .text.USBH_USR_DeviceNotSupported
                0x080017fc        0x2 User\usbh_usr.o
                0x080017fc                USBH_USR_DeviceNotSupported
 .text.USBH_USR_UserInput
                0x080017fe        0x4 User\usbh_usr.o
                0x080017fe                USBH_USR_UserInput
 .text.USBH_USR_OverCurrentDetected
                0x08001802        0x2 User\usbh_usr.o
                0x08001802                USBH_USR_OverCurrentDetected
 .text.USBH_USR_DeInit
                0x08001804        0xc User\usbh_usr.o
                0x08001804                USBH_USR_DeInit
 .text.USBH_USR_DeviceDisconnected
                0x08001810       0x60 User\usbh_usr.o
                0x08001810                USBH_USR_DeviceDisconnected
 .text.USBH_USR_DeviceAttached
                0x08001870       0x34 User\usbh_usr.o
                0x08001870                USBH_USR_DeviceAttached
 .text.COMMAND_AudioExecuteApplication
                0x080018a4       0x2c User\usbh_usr.o
                0x080018a4                COMMAND_AudioExecuteApplication
 .text.USBH_USR_MSC_Application
                0x080018d0       0x4c User\usbh_usr.o
                0x080018d0                USBH_USR_MSC_Application
 .text.USBH_USR_EnumerationDone
                0x0800191c       0x12 User\usbh_usr.o
                0x0800191c                USBH_USR_EnumerationDone
 *fill*         0x0800192e        0x2 00
 .text.BSP_Delay
                0x08001930       0x8c User\usb_bsp.o
 .text.USB_OTG_BSP_Init
                0x080019bc       0xbc User\usb_bsp.o
                0x080019bc                USB_OTG_BSP_Init
 .text.USB_OTG_BSP_EnableInterrupt
                0x08001a78       0x40 User\usb_bsp.o
                0x08001a78                USB_OTG_BSP_EnableInterrupt
 .text.USB_OTG_BSP_DriveVBUS
                0x08001ab8       0x18 User\usb_bsp.o
                0x08001ab8                USB_OTG_BSP_DriveVBUS
 .text.USB_OTG_BSP_uDelay
                0x08001ad0        0x6 User\usb_bsp.o
                0x08001ad0                USB_OTG_BSP_uDelay
 .text.USB_OTG_BSP_mDelay
                0x08001ad6        0x6 User\usb_bsp.o
                0x08001ad6                USB_OTG_BSP_mDelay
 .text.USB_OTG_BSP_ConfigVBUS
                0x08001adc       0x40 User\usb_bsp.o
                0x08001adc                USB_OTG_BSP_ConfigVBUS
 .text.USB_OTG_BSP_TimerIRQ
                0x08001b1c       0x38 User\usb_bsp.o
                0x08001b1c                USB_OTG_BSP_TimerIRQ
 .text.SystemInit
                0x08001b54      0x110 User\system_stm32f4xx.o
                0x08001b54                SystemInit
 .text.NMI_Handler
                0x08001c64        0x2 User\stm32f4xx_it.o
                0x08001c64                NMI_Handler
 .text.HardFault_Handler
                0x08001c66        0x2 User\stm32f4xx_it.o
                0x08001c66                HardFault_Handler
 .text.MemManage_Handler
                0x08001c68        0x2 User\stm32f4xx_it.o
                0x08001c68                MemManage_Handler
 .text.BusFault_Handler
                0x08001c6a        0x2 User\stm32f4xx_it.o
                0x08001c6a                BusFault_Handler
 .text.UsageFault_Handler
                0x08001c6c        0x2 User\stm32f4xx_it.o
                0x08001c6c                UsageFault_Handler
 .text.SVC_Handler
                0x08001c6e        0x2 User\stm32f4xx_it.o
                0x08001c6e                SVC_Handler
 .text.DebugMon_Handler
                0x08001c70        0x2 User\stm32f4xx_it.o
                0x08001c70                DebugMon_Handler
 .text.PendSV_Handler
                0x08001c72        0x2 User\stm32f4xx_it.o
                0x08001c72                PendSV_Handler
 .text.SysTick_Handler
                0x08001c74       0x24 User\stm32f4xx_it.o
                0x08001c74                SysTick_Handler
 .text.EXTI1_IRQHandler
                0x08001c98       0x38 User\stm32f4xx_it.o
                0x08001c98                EXTI1_IRQHandler
 .text.TIM4_IRQHandler
                0x08001cd0       0xe0 User\stm32f4xx_it.o
                0x08001cd0                TIM4_IRQHandler
 .text.EXTI0_IRQHandler
                0x08001db0       0x48 User\stm32f4xx_it.o
                0x08001db0                EXTI0_IRQHandler
 .text.TIM2_IRQHandler
                0x08001df8        0x4 User\stm32f4xx_it.o
                0x08001df8                TIM2_IRQHandler
 .text.OTG_FS_IRQHandler
                0x08001dfc        0xc User\stm32f4xx_it.o
                0x08001dfc                OTG_FS_IRQHandler
 .text.main     0x08001e08      0x154 User\main.o
                0x08001e08                main
 .text.Reset_Handler
                0x08001f5c       0x48 TrueSTUDIO\startup_stm32f4xx.o
                0x08001f5c                Reset_Handler
 .text.Default_Handler
                0x08001fa4        0x2 TrueSTUDIO\startup_stm32f4xx.o
                0x08001fa4                RTC_Alarm_IRQHandler
                0x08001fa4                HASH_RNG_IRQHandler
                0x08001fa4                EXTI2_IRQHandler
                0x08001fa4                TIM8_CC_IRQHandler
                0x08001fa4                TIM1_CC_IRQHandler
                0x08001fa4                DMA2_Stream5_IRQHandler
                0x08001fa4                DMA1_Stream5_IRQHandler
                0x08001fa4                PVD_IRQHandler
                0x08001fa4                SDIO_IRQHandler
                0x08001fa4                TAMP_STAMP_IRQHandler
                0x08001fa4                CAN2_RX1_IRQHandler
                0x08001fa4                EXTI3_IRQHandler
                0x08001fa4                TIM8_TRG_COM_TIM14_IRQHandler
                0x08001fa4                TIM1_UP_TIM10_IRQHandler
                0x08001fa4                TIM8_UP_TIM13_IRQHandler
                0x08001fa4                I2C3_ER_IRQHandler
                0x08001fa4                I2C2_EV_IRQHandler
                0x08001fa4                DMA1_Stream2_IRQHandler
                0x08001fa4                CAN1_RX0_IRQHandler
                0x08001fa4                FPU_IRQHandler
                0x08001fa4                OTG_HS_WKUP_IRQHandler
                0x08001fa4                CAN2_SCE_IRQHandler
                0x08001fa4                DMA2_Stream2_IRQHandler
                0x08001fa4                SPI1_IRQHandler
                0x08001fa4                TIM6_DAC_IRQHandler
                0x08001fa4                TIM1_BRK_TIM9_IRQHandler
                0x08001fa4                DCMI_IRQHandler
                0x08001fa4                CAN2_RX0_IRQHandler
                0x08001fa4                DMA2_Stream3_IRQHandler
                0x08001fa4                USART6_IRQHandler
                0x08001fa4                USART3_IRQHandler
                0x08001fa4                CRYP_IRQHandler
                0x08001fa4                CAN1_RX1_IRQHandler
                0x08001fa4                UART5_IRQHandler
                0x08001fa4                DMA2_Stream0_IRQHandler
                0x08001fa4                I2C1_EV_IRQHandler
                0x08001fa4                DMA1_Stream6_IRQHandler
                0x08001fa4                DMA1_Stream1_IRQHandler
                0x08001fa4                UART4_IRQHandler
                0x08001fa4                TIM3_IRQHandler
                0x08001fa4                RCC_IRQHandler
                0x08001fa4                TIM8_BRK_TIM12_IRQHandler
                0x08001fa4                Default_Handler
                0x08001fa4                EXTI15_10_IRQHandler
                0x08001fa4                ADC_IRQHandler
                0x08001fa4                TIM7_IRQHandler
                0x08001fa4                CAN2_TX_IRQHandler
                0x08001fa4                TIM5_IRQHandler
                0x08001fa4                DMA2_Stream7_IRQHandler
                0x08001fa4                I2C3_EV_IRQHandler
                0x08001fa4                EXTI9_5_IRQHandler
                0x08001fa4                RTC_WKUP_IRQHandler
                0x08001fa4                ETH_WKUP_IRQHandler
                0x08001fa4                OTG_HS_EP1_IN_IRQHandler
                0x08001fa4                CAN1_TX_IRQHandler
                0x08001fa4                EXTI4_IRQHandler
                0x08001fa4                FSMC_IRQHandler
                0x08001fa4                ETH_IRQHandler
                0x08001fa4                OTG_HS_EP1_OUT_IRQHandler
                0x08001fa4                WWDG_IRQHandler
                0x08001fa4                OTG_FS_WKUP_IRQHandler
                0x08001fa4                TIM1_TRG_COM_TIM11_IRQHandler
                0x08001fa4                OTG_HS_IRQHandler
                0x08001fa4                USART2_IRQHandler
                0x08001fa4                I2C2_ER_IRQHandler
                0x08001fa4                DMA2_Stream1_IRQHandler
                0x08001fa4                CAN1_SCE_IRQHandler
                0x08001fa4                FLASH_IRQHandler
                0x08001fa4                DMA2_Stream4_IRQHandler
                0x08001fa4                USART1_IRQHandler
                0x08001fa4                DMA1_Stream4_IRQHandler
                0x08001fa4                I2C1_ER_IRQHandler
                0x08001fa4                DMA2_Stream6_IRQHandler
                0x08001fa4                DMA1_Stream3_IRQHandler
 *fill*         0x08001fa6        0x2 00
 .text.USB_OTG_USBH_handle_sof_ISR
                0x08001fa8       0x30 STM32_USB_OTG_Driver\usb_hcd_int.o
 .text.USB_OTG_USBH_handle_Disconnect_ISR
                0x08001fd8       0x44 STM32_USB_OTG_Driver\usb_hcd_int.o
 .text.USB_OTG_USBH_handle_IncompletePeriodicXfer_ISR
                0x0800201c       0x54 STM32_USB_OTG_Driver\usb_hcd_int.o
 .text.USB_OTG_USBH_handle_rx_qlvl_ISR
                0x08002070      0x1d8 STM32_USB_OTG_Driver\usb_hcd_int.o
 .text.USB_OTG_USBH_handle_hc_n_In_ISR
                0x08002248      0x60c STM32_USB_OTG_Driver\usb_hcd_int.o
 .text.USB_OTG_USBH_handle_hc_n_Out_ISR
                0x08002854      0x564 STM32_USB_OTG_Driver\usb_hcd_int.o
 .text.USB_OTG_USBH_handle_port_ISR
                0x08002db8      0x184 STM32_USB_OTG_Driver\usb_hcd_int.o
 .text.USB_OTG_USBH_handle_ptxfempty_ISR
                0x08002f3c      0x1b4 STM32_USB_OTG_Driver\usb_hcd_int.o
 .text.USB_OTG_USBH_handle_nptxfempty_ISR
                0x080030f0      0x1b4 STM32_USB_OTG_Driver\usb_hcd_int.o
 .text.USB_OTG_USBH_handle_hc_ISR
                0x080032a4       0xac STM32_USB_OTG_Driver\usb_hcd_int.o
 .text.USBH_OTG_ISR_Handler
                0x08003350      0x154 STM32_USB_OTG_Driver\usb_hcd_int.o
                0x08003350                USBH_OTG_ISR_Handler
 .text.HCD_Init
                0x080034a4       0x5a STM32_USB_OTG_Driver\usb_hcd.o
                0x080034a4                HCD_Init
 .text.HCD_GetCurrentSpeed
                0x080034fe        0xc STM32_USB_OTG_Driver\usb_hcd.o
                0x080034fe                HCD_GetCurrentSpeed
 .text.HCD_ResetPort
                0x0800350a        0xa STM32_USB_OTG_Driver\usb_hcd.o
                0x0800350a                HCD_ResetPort
 .text.HCD_IsDeviceConnected
                0x08003514        0x6 STM32_USB_OTG_Driver\usb_hcd.o
                0x08003514                HCD_IsDeviceConnected
 .text.HCD_GetCurrentFrame
                0x0800351a        0x8 STM32_USB_OTG_Driver\usb_hcd.o
                0x0800351a                HCD_GetCurrentFrame
 .text.HCD_GetURB_State
                0x08003522        0x8 STM32_USB_OTG_Driver\usb_hcd.o
                0x08003522                HCD_GetURB_State
 .text.HCD_GetXferCnt
                0x0800352a        0x8 STM32_USB_OTG_Driver\usb_hcd.o
                0x0800352a                HCD_GetXferCnt
 .text.HCD_SubmitRequest
                0x08003532       0x18 STM32_USB_OTG_Driver\usb_hcd.o
                0x08003532                HCD_SubmitRequest
 *fill*         0x0800354a        0x2 00
 .text.USB_OTG_CoreReset
                0x0800354c       0x54 STM32_USB_OTG_Driver\usb_core.o
 .text.USB_OTG_WritePacket
                0x080035a0       0x26 STM32_USB_OTG_Driver\usb_core.o
                0x080035a0                USB_OTG_WritePacket
 .text.USB_OTG_ReadPacket
                0x080035c6       0x22 STM32_USB_OTG_Driver\usb_core.o
                0x080035c6                USB_OTG_ReadPacket
 .text.USB_OTG_SelectCore
                0x080035e8       0xb8 STM32_USB_OTG_Driver\usb_core.o
                0x080035e8                USB_OTG_SelectCore
 .text.USB_OTG_CoreInit
                0x080036a0       0xe2 STM32_USB_OTG_Driver\usb_core.o
                0x080036a0                USB_OTG_CoreInit
 .text.USB_OTG_EnableGlobalInt
                0x08003782        0xe STM32_USB_OTG_Driver\usb_core.o
                0x08003782                USB_OTG_EnableGlobalInt
 .text.USB_OTG_DisableGlobalInt
                0x08003790        0xe STM32_USB_OTG_Driver\usb_core.o
                0x08003790                USB_OTG_DisableGlobalInt
 *fill*         0x0800379e        0x2 00
 .text.USB_OTG_FlushTxFifo
                0x080037a0       0x40 STM32_USB_OTG_Driver\usb_core.o
                0x080037a0                USB_OTG_FlushTxFifo
 .text.USB_OTG_FlushRxFifo
                0x080037e0       0x38 STM32_USB_OTG_Driver\usb_core.o
                0x080037e0                USB_OTG_FlushRxFifo
 .text.USB_OTG_SetCurrentMode
                0x08003818       0x2a STM32_USB_OTG_Driver\usb_core.o
                0x08003818                USB_OTG_SetCurrentMode
 .text.USB_OTG_GetMode
                0x08003842        0xa STM32_USB_OTG_Driver\usb_core.o
                0x08003842                USB_OTG_GetMode
 .text.USB_OTG_IsHostMode
                0x0800384c       0x12 STM32_USB_OTG_Driver\usb_core.o
                0x0800384c                USB_OTG_IsHostMode
 .text.USB_OTG_ReadCoreItr
                0x0800385e        0xa STM32_USB_OTG_Driver\usb_core.o
                0x0800385e                USB_OTG_ReadCoreItr
 .text.USB_OTG_IsEvenFrame
                0x08003868        0xe STM32_USB_OTG_Driver\usb_core.o
                0x08003868                USB_OTG_IsEvenFrame
 *fill*         0x08003876        0x2 00
 .text.USB_OTG_EnableHostInt
                0x08003878       0x3c STM32_USB_OTG_Driver\usb_core.o
                0x08003878                USB_OTG_EnableHostInt
 .text.USB_OTG_InitFSLSPClkSel
                0x080038b4        0xc STM32_USB_OTG_Driver\usb_core.o
                0x080038b4                USB_OTG_InitFSLSPClkSel
 .text.USB_OTG_ReadHPRT0
                0x080038c0        0xc STM32_USB_OTG_Driver\usb_core.o
                0x080038c0                USB_OTG_ReadHPRT0
 .text.USB_OTG_DriveVbus
                0x080038cc       0x4c STM32_USB_OTG_Driver\usb_core.o
                0x080038cc                USB_OTG_DriveVbus
 .text.USB_OTG_CoreInitHost
                0x08003918       0x86 STM32_USB_OTG_Driver\usb_core.o
                0x08003918                USB_OTG_CoreInitHost
 .text.USB_OTG_ReadHostAllChannels_intr
                0x0800399e        0x6 STM32_USB_OTG_Driver\usb_core.o
                0x0800399e                USB_OTG_ReadHostAllChannels_intr
 .text.USB_OTG_ResetPort
                0x080039a4       0x2c STM32_USB_OTG_Driver\usb_core.o
                0x080039a4                USB_OTG_ResetPort
 .text.USB_OTG_HC_Init
                0x080039d0       0xec STM32_USB_OTG_Driver\usb_core.o
                0x080039d0                USB_OTG_HC_Init
 .text.USB_OTG_HC_StartXfer
                0x08003abc      0x116 STM32_USB_OTG_Driver\usb_core.o
                0x08003abc                USB_OTG_HC_StartXfer
 .text.USB_OTG_HC_Halt
                0x08003bd2       0x3e STM32_USB_OTG_Driver\usb_core.o
                0x08003bd2                USB_OTG_HC_Halt
 .text.USB_OTG_HC_DoPing
                0x08003c10       0x28 STM32_USB_OTG_Driver\usb_core.o
                0x08003c10                USB_OTG_HC_DoPing
 .text.USBH_GetNextDesc
                0x08003c38        0xe STM32_USB_HOST_Library\Core\usbh_stdreq.o
 .text.USBH_GetDescriptor
                0x08003c46       0x34 STM32_USB_HOST_Library\Core\usbh_stdreq.o
                0x08003c46                USBH_GetDescriptor
 .text.USBH_Get_StringDesc
                0x08003c7a       0x50 STM32_USB_HOST_Library\Core\usbh_stdreq.o
                0x08003c7a                USBH_Get_StringDesc
 .text.USBH_Get_CfgDesc
                0x08003cca      0x140 STM32_USB_HOST_Library\Core\usbh_stdreq.o
                0x08003cca                USBH_Get_CfgDesc
 .text.USBH_Get_DevDesc
                0x08003e0a       0xac STM32_USB_HOST_Library\Core\usbh_stdreq.o
                0x08003e0a                USBH_Get_DevDesc
 .text.USBH_SetAddress
                0x08003eb6       0x1c STM32_USB_HOST_Library\Core\usbh_stdreq.o
                0x08003eb6                USBH_SetAddress
 .text.USBH_SetCfg
                0x08003ed2       0x1c STM32_USB_HOST_Library\Core\usbh_stdreq.o
                0x08003ed2                USBH_SetCfg
 .text.USBH_ClrFeature
                0x08003eee       0x36 STM32_USB_HOST_Library\Core\usbh_stdreq.o
                0x08003eee                USBH_ClrFeature
 .text.USBH_CtlReq
                0x08003f24       0x54 STM32_USB_HOST_Library\Core\usbh_ioreq.o
                0x08003f24                USBH_CtlReq
 .text.USBH_CtlSendSetup
                0x08003f78       0x2e STM32_USB_HOST_Library\Core\usbh_ioreq.o
                0x08003f78                USBH_CtlSendSetup
 .text.USBH_CtlSendData
                0x08003fa6       0x54 STM32_USB_HOST_Library\Core\usbh_ioreq.o
                0x08003fa6                USBH_CtlSendData
 .text.USBH_CtlReceiveData
                0x08003ffa       0x2c STM32_USB_HOST_Library\Core\usbh_ioreq.o
                0x08003ffa                USBH_CtlReceiveData
 .text.USBH_BulkSendData
                0x08004026       0x38 STM32_USB_HOST_Library\Core\usbh_ioreq.o
                0x08004026                USBH_BulkSendData
 .text.USBH_BulkReceiveData
                0x0800405e       0x38 STM32_USB_HOST_Library\Core\usbh_ioreq.o
                0x0800405e                USBH_BulkReceiveData
 .text.USBH_Open_Channel
                0x08004096       0x54 STM32_USB_HOST_Library\Core\usbh_hcs.o
                0x08004096                USBH_Open_Channel
 .text.USBH_Modify_Channel
                0x080040ea       0x3a STM32_USB_HOST_Library\Core\usbh_hcs.o
                0x080040ea                USBH_Modify_Channel
 .text.USBH_Alloc_Channel
                0x08004124       0x32 STM32_USB_HOST_Library\Core\usbh_hcs.o
                0x08004124                USBH_Alloc_Channel
 .text.USBH_Free_Channel
                0x08004156       0x18 STM32_USB_HOST_Library\Core\usbh_hcs.o
                0x08004156                USBH_Free_Channel
 .text.USBH_DeAllocate_AllChannel
                0x0800416e       0x1e STM32_USB_HOST_Library\Core\usbh_hcs.o
                0x0800416e                USBH_DeAllocate_AllChannel
 .text.USBH_Connect
                0x0800418c       0x12 STM32_USB_HOST_Library\Core\usbh_core.o
                0x0800418c                USBH_Connect
 .text.USBH_Disconnect
                0x0800419e       0x12 STM32_USB_HOST_Library\Core\usbh_core.o
                0x0800419e                USBH_Disconnect
 .text.USBH_DeInit
                0x080041b0       0x32 STM32_USB_HOST_Library\Core\usbh_core.o
                0x080041b0                USBH_DeInit
 *fill*         0x080041e2        0x2 00
 .text.USBH_Init
                0x080041e4       0x54 STM32_USB_HOST_Library\Core\usbh_core.o
                0x080041e4                USBH_Init
 .text.USBH_ErrorHandle
                0x08004238       0x2c STM32_USB_HOST_Library\Core\usbh_core.o
                0x08004238                USBH_ErrorHandle
 .text.USBH_HandleControl
                0x08004264      0x1c8 STM32_USB_HOST_Library\Core\usbh_core.o
                0x08004264                USBH_HandleControl
 .text.USBH_Process
                0x0800442c      0x320 STM32_USB_HOST_Library\Core\usbh_core.o
                0x0800442c                USBH_Process
 .text.USBH_MSC_TestUnitReady
                0x0800474c       0x84 STM32_USB_HOST_Library\Class\MSC\usbh_msc_scsi.o
                0x0800474c                USBH_MSC_TestUnitReady
 .text.USBH_MSC_ReadCapacity10
                0x080047d0       0xa8 STM32_USB_HOST_Library\Class\MSC\usbh_msc_scsi.o
                0x080047d0                USBH_MSC_ReadCapacity10
 .text.USBH_MSC_ModeSense6
                0x08004878       0xa8 STM32_USB_HOST_Library\Class\MSC\usbh_msc_scsi.o
                0x08004878                USBH_MSC_ModeSense6
 .text.USBH_MSC_RequestSense
                0x08004920       0xa4 STM32_USB_HOST_Library\Class\MSC\usbh_msc_scsi.o
                0x08004920                USBH_MSC_RequestSense
 .text.USBH_MSC_Write10
                0x080049c4       0xa0 STM32_USB_HOST_Library\Class\MSC\usbh_msc_scsi.o
                0x080049c4                USBH_MSC_Write10
 .text.USBH_MSC_Read10
                0x08004a64       0xdc STM32_USB_HOST_Library\Class\MSC\usbh_msc_scsi.o
                0x08004a64                USBH_MSC_Read10
 .text.disk_initialize
                0x08004b40       0x20 STM32_USB_HOST_Library\Class\MSC\usbh_msc_fatfs.o
                0x08004b40                disk_initialize
 .text.disk_status
                0x08004b60       0x10 STM32_USB_HOST_Library\Class\MSC\usbh_msc_fatfs.o
                0x08004b60                disk_status
 .text.disk_read
                0x08004b70       0x64 STM32_USB_HOST_Library\Class\MSC\usbh_msc_fatfs.o
                0x08004b70                disk_read
 .text.disk_write
                0x08004bd4       0x70 STM32_USB_HOST_Library\Class\MSC\usbh_msc_fatfs.o
                0x08004bd4                disk_write
 .text.disk_ioctl
                0x08004c44       0x48 STM32_USB_HOST_Library\Class\MSC\usbh_msc_fatfs.o
                0x08004c44                disk_ioctl
 .text.USBH_MSC_ClassRequest
                0x08004c8c        0xc STM32_USB_HOST_Library\Class\MSC\usbh_msc_core.o
 .text.USBH_MSC_InterfaceDeInit
                0x08004c98       0x38 STM32_USB_HOST_Library\Class\MSC\usbh_msc_core.o
 .text.USBH_MSC_InterfaceInit
                0x08004cd0       0xa4 STM32_USB_HOST_Library\Class\MSC\usbh_msc_core.o
 .text.USBH_MSC_ErrorHandle
                0x08004d74       0x38 STM32_USB_HOST_Library\Class\MSC\usbh_msc_core.o
                0x08004d74                USBH_MSC_ErrorHandle
 .text.USBH_MSC_Handle
                0x08004dac      0x158 STM32_USB_HOST_Library\Class\MSC\usbh_msc_core.o
 .text.USBH_MSC_Init
                0x08004f04       0x40 STM32_USB_HOST_Library\Class\MSC\usbh_msc_bot.o
                0x08004f04                USBH_MSC_Init
 .text.USBH_MSC_BOT_Abort
                0x08004f44       0x38 STM32_USB_HOST_Library\Class\MSC\usbh_msc_bot.o
                0x08004f44                USBH_MSC_BOT_Abort
 .text.USBH_MSC_DecodeCSW
                0x08004f7c       0x60 STM32_USB_HOST_Library\Class\MSC\usbh_msc_bot.o
                0x08004f7c                USBH_MSC_DecodeCSW
 .text.USBH_MSC_HandleBOTXfer
                0x08004fdc      0x268 STM32_USB_HOST_Library\Class\MSC\usbh_msc_bot.o
                0x08004fdc                USBH_MSC_HandleBOTXfer
 .text.TIM_TimeBaseInit
                0x08005244       0x8c STM32F4xx_StdPeriph_Driver\stm32f4xx_tim.o
                0x08005244                TIM_TimeBaseInit
 .text.TIM_ARRPreloadConfig
                0x080052d0       0x1a STM32F4xx_StdPeriph_Driver\stm32f4xx_tim.o
                0x080052d0                TIM_ARRPreloadConfig
 .text.TIM_Cmd  0x080052ea       0x1a STM32F4xx_StdPeriph_Driver\stm32f4xx_tim.o
                0x080052ea                TIM_Cmd
 .text.TIM_OC1Init
                0x08005304       0x84 STM32F4xx_StdPeriph_Driver\stm32f4xx_tim.o
                0x08005304                TIM_OC1Init
 .text.TIM_SetCompare1
                0x08005388        0x4 STM32F4xx_StdPeriph_Driver\stm32f4xx_tim.o
                0x08005388                TIM_SetCompare1
 .text.TIM_OC1PreloadConfig
                0x0800538c       0x12 STM32F4xx_StdPeriph_Driver\stm32f4xx_tim.o
                0x0800538c                TIM_OC1PreloadConfig
 .text.TIM_GetCapture1
                0x0800539e        0x4 STM32F4xx_StdPeriph_Driver\stm32f4xx_tim.o
                0x0800539e                TIM_GetCapture1
 .text.TIM_ITConfig
                0x080053a2       0x16 STM32F4xx_StdPeriph_Driver\stm32f4xx_tim.o
                0x080053a2                TIM_ITConfig
 .text.TIM_GetITStatus
                0x080053b8       0x16 STM32F4xx_StdPeriph_Driver\stm32f4xx_tim.o
                0x080053b8                TIM_GetITStatus
 .text.TIM_ClearITPendingBit
                0x080053ce        0x8 STM32F4xx_StdPeriph_Driver\stm32f4xx_tim.o
                0x080053ce                TIM_ClearITPendingBit
 *fill*         0x080053d6        0x2 00
 .text.SYSCFG_EXTILineConfig
                0x080053d8       0x34 STM32F4xx_StdPeriph_Driver\stm32f4xx_syscfg.o
                0x080053d8                SYSCFG_EXTILineConfig
 .text.SPI_I2S_DeInit
                0x0800540c       0x64 STM32F4xx_StdPeriph_Driver\stm32f4xx_spi.o
                0x0800540c                SPI_I2S_DeInit
 .text.SPI_Init
                0x08005470       0x42 STM32F4xx_StdPeriph_Driver\stm32f4xx_spi.o
                0x08005470                SPI_Init
 *fill*         0x080054b2        0x2 00
 .text.I2S_Init
                0x080054b4       0xdc STM32F4xx_StdPeriph_Driver\stm32f4xx_spi.o
                0x080054b4                I2S_Init
 .text.SPI_Cmd  0x08005590       0x1a STM32F4xx_StdPeriph_Driver\stm32f4xx_spi.o
                0x08005590                SPI_Cmd
 .text.I2S_Cmd  0x080055aa       0x1a STM32F4xx_StdPeriph_Driver\stm32f4xx_spi.o
                0x080055aa                I2S_Cmd
 .text.SPI_I2S_ReceiveData
                0x080055c4        0x6 STM32F4xx_StdPeriph_Driver\stm32f4xx_spi.o
                0x080055c4                SPI_I2S_ReceiveData
 .text.SPI_I2S_SendData
                0x080055ca        0x4 STM32F4xx_StdPeriph_Driver\stm32f4xx_spi.o
                0x080055ca                SPI_I2S_SendData
 .text.SPI_I2S_DMACmd
                0x080055ce       0x16 STM32F4xx_StdPeriph_Driver\stm32f4xx_spi.o
                0x080055ce                SPI_I2S_DMACmd
 .text.SPI_I2S_ITConfig
                0x080055e4       0x1e STM32F4xx_StdPeriph_Driver\stm32f4xx_spi.o
                0x080055e4                SPI_I2S_ITConfig
 .text.SPI_I2S_GetFlagStatus
                0x08005602        0xc STM32F4xx_StdPeriph_Driver\stm32f4xx_spi.o
                0x08005602                SPI_I2S_GetFlagStatus
 .text.SPI_I2S_GetITStatus
                0x0800560e       0x26 STM32F4xx_StdPeriph_Driver\stm32f4xx_spi.o
                0x0800560e                SPI_I2S_GetITStatus
 .text.RCC_GetClocksFreq
                0x08005634       0xac STM32F4xx_StdPeriph_Driver\stm32f4xx_rcc.o
                0x08005634                RCC_GetClocksFreq
 .text.RCC_AHB1PeriphClockCmd
                0x080056e0       0x18 STM32F4xx_StdPeriph_Driver\stm32f4xx_rcc.o
                0x080056e0                RCC_AHB1PeriphClockCmd
 .text.RCC_AHB2PeriphClockCmd
                0x080056f8       0x18 STM32F4xx_StdPeriph_Driver\stm32f4xx_rcc.o
                0x080056f8                RCC_AHB2PeriphClockCmd
 .text.RCC_APB1PeriphClockCmd
                0x08005710       0x18 STM32F4xx_StdPeriph_Driver\stm32f4xx_rcc.o
                0x08005710                RCC_APB1PeriphClockCmd
 .text.RCC_APB2PeriphClockCmd
                0x08005728       0x18 STM32F4xx_StdPeriph_Driver\stm32f4xx_rcc.o
                0x08005728                RCC_APB2PeriphClockCmd
 .text.RCC_APB1PeriphResetCmd
                0x08005740       0x18 STM32F4xx_StdPeriph_Driver\stm32f4xx_rcc.o
                0x08005740                RCC_APB1PeriphResetCmd
 .text.RCC_APB2PeriphResetCmd
                0x08005758       0x18 STM32F4xx_StdPeriph_Driver\stm32f4xx_rcc.o
                0x08005758                RCC_APB2PeriphResetCmd
 .text.I2C_DeInit
                0x08005770       0x5c STM32F4xx_StdPeriph_Driver\stm32f4xx_i2c.o
                0x08005770                I2C_DeInit
 .text.I2C_Init
                0x080057cc       0xd8 STM32F4xx_StdPeriph_Driver\stm32f4xx_i2c.o
                0x080057cc                I2C_Init
 .text.I2C_Cmd  0x080058a4       0x1a STM32F4xx_StdPeriph_Driver\stm32f4xx_i2c.o
                0x080058a4                I2C_Cmd
 .text.I2C_GenerateSTART
                0x080058be       0x1a STM32F4xx_StdPeriph_Driver\stm32f4xx_i2c.o
                0x080058be                I2C_GenerateSTART
 .text.I2C_GenerateSTOP
                0x080058d8       0x1a STM32F4xx_StdPeriph_Driver\stm32f4xx_i2c.o
                0x080058d8                I2C_GenerateSTOP
 .text.I2C_Send7bitAddress
                0x080058f2       0x10 STM32F4xx_StdPeriph_Driver\stm32f4xx_i2c.o
                0x080058f2                I2C_Send7bitAddress
 .text.I2C_AcknowledgeConfig
                0x08005902       0x1a STM32F4xx_StdPeriph_Driver\stm32f4xx_i2c.o
                0x08005902                I2C_AcknowledgeConfig
 .text.I2C_SendData
                0x0800591c        0x4 STM32F4xx_StdPeriph_Driver\stm32f4xx_i2c.o
                0x0800591c                I2C_SendData
 .text.I2C_ReceiveData
                0x08005920        0x6 STM32F4xx_StdPeriph_Driver\stm32f4xx_i2c.o
                0x08005920                I2C_ReceiveData
 .text.I2C_CheckEvent
                0x08005926       0x1a STM32F4xx_StdPeriph_Driver\stm32f4xx_i2c.o
                0x08005926                I2C_CheckEvent
 .text.I2C_GetFlagStatus
                0x08005940       0x34 STM32F4xx_StdPeriph_Driver\stm32f4xx_i2c.o
                0x08005940                I2C_GetFlagStatus
 .text.I2C_ClearFlag
                0x08005974        0x8 STM32F4xx_StdPeriph_Driver\stm32f4xx_i2c.o
                0x08005974                I2C_ClearFlag
 .text.GPIO_Init
                0x0800597c       0x86 STM32F4xx_StdPeriph_Driver\stm32f4xx_gpio.o
                0x0800597c                GPIO_Init
 .text.GPIO_SetBits
                0x08005a02        0x4 STM32F4xx_StdPeriph_Driver\stm32f4xx_gpio.o
                0x08005a02                GPIO_SetBits
 .text.GPIO_ResetBits
                0x08005a06        0x4 STM32F4xx_StdPeriph_Driver\stm32f4xx_gpio.o
                0x08005a06                GPIO_ResetBits
 .text.GPIO_WriteBit
                0x08005a0a        0xa STM32F4xx_StdPeriph_Driver\stm32f4xx_gpio.o
                0x08005a0a                GPIO_WriteBit
 .text.GPIO_PinAFConfig
                0x08005a14       0x2e STM32F4xx_StdPeriph_Driver\stm32f4xx_gpio.o
                0x08005a14                GPIO_PinAFConfig
 *fill*         0x08005a42        0x2 00
 .text.EXTI_Init
                0x08005a44       0x7c STM32F4xx_StdPeriph_Driver\stm32f4xx_exti.o
                0x08005a44                EXTI_Init
 .text.EXTI_GetITStatus
                0x08005ac0       0x1c STM32F4xx_StdPeriph_Driver\stm32f4xx_exti.o
                0x08005ac0                EXTI_GetITStatus
 .text.EXTI_ClearITPendingBit
                0x08005adc        0xc STM32F4xx_StdPeriph_Driver\stm32f4xx_exti.o
                0x08005adc                EXTI_ClearITPendingBit
 .text.DMA_DeInit
                0x08005ae8      0x118 STM32F4xx_StdPeriph_Driver\stm32f4xx_dma.o
                0x08005ae8                DMA_DeInit
 .text.DMA_Init
                0x08005c00       0x5c STM32F4xx_StdPeriph_Driver\stm32f4xx_dma.o
                0x08005c00                DMA_Init
 .text.DMA_Cmd  0x08005c5c       0x14 STM32F4xx_StdPeriph_Driver\stm32f4xx_dma.o
                0x08005c5c                DMA_Cmd
 .text.DMA_GetCmdStatus
                0x08005c70        0x8 STM32F4xx_StdPeriph_Driver\stm32f4xx_dma.o
                0x08005c70                DMA_GetCmdStatus
 .text.DMA_GetFlagStatus
                0x08005c78       0x38 STM32F4xx_StdPeriph_Driver\stm32f4xx_dma.o
                0x08005c78                DMA_GetFlagStatus
 .text.DMA_ClearFlag
                0x08005cb0       0x30 STM32F4xx_StdPeriph_Driver\stm32f4xx_dma.o
                0x08005cb0                DMA_ClearFlag
 .text.DMA_ITConfig
                0x08005ce0       0x34 STM32F4xx_StdPeriph_Driver\stm32f4xx_dma.o
                0x08005ce0                DMA_ITConfig
 .text.DAC_Init
                0x08005d14       0x30 STM32F4xx_StdPeriph_Driver\stm32f4xx_dac.o
                0x08005d14                DAC_Init
 .text.DAC_Cmd  0x08005d44       0x20 STM32F4xx_StdPeriph_Driver\stm32f4xx_dac.o
                0x08005d44                DAC_Cmd
 .text.DAC_SetChannel1Data
                0x08005d64       0x20 STM32F4xx_StdPeriph_Driver\stm32f4xx_dac.o
                0x08005d64                DAC_SetChannel1Data
 .text.NVIC_PriorityGroupConfig
                0x08005d84       0x14 STM32F4xx_StdPeriph_Driver\misc.o
                0x08005d84                NVIC_PriorityGroupConfig
 .text.NVIC_Init
                0x08005d98       0x68 STM32F4xx_StdPeriph_Driver\misc.o
                0x08005d98                NVIC_Init
 .text.NVIC_SetVectorTable
                0x08005e00       0x14 STM32F4xx_StdPeriph_Driver\misc.o
                0x08005e00                NVIC_SetVectorTable
 .text.LIS302DL_SendByte
                0x08005e14       0x60 STM32F4-Discovery\stm32f4_discovery_lis302dl.o
 .text.LIS302DL_Write
                0x08005e74       0x40 STM32F4-Discovery\stm32f4_discovery_lis302dl.o
                0x08005e74                LIS302DL_Write
 .text.LIS302DL_Init
                0x08005eb4      0x15c STM32F4-Discovery\stm32f4_discovery_lis302dl.o
                0x08005eb4                LIS302DL_Init
 .text.LIS302DL_Read
                0x08006010       0x44 STM32F4-Discovery\stm32f4_discovery_lis302dl.o
                0x08006010                LIS302DL_Read
 .text.LIS302DL_InterruptConfig
                0x08006054       0x32 STM32F4-Discovery\stm32f4_discovery_lis302dl.o
                0x08006054                LIS302DL_InterruptConfig
 .text.Delay    0x08006086       0x16 STM32F4-Discovery\stm32f4_discovery_audio_codec.o
 .text.Audio_MAL_IRQHandler
                0x0800609c       0xb4 STM32F4-Discovery\stm32f4_discovery_audio_codec.o
 .text.Codec_WriteRegister
                0x08006150      0x244 STM32F4-Discovery\stm32f4_discovery_audio_codec.o
 .text.Codec_Mute
                0x08006394       0x18 STM32F4-Discovery\stm32f4_discovery_audio_codec.o
 .text.Codec_VolumeCtrl
                0x080063ac       0x3a STM32F4-Discovery\stm32f4_discovery_audio_codec.o
 *fill*         0x080063e6        0x2 00
 .text.Codec_Reset
                0x080063e8       0x28 STM32F4-Discovery\stm32f4_discovery_audio_codec.o
 .text.EVAL_AUDIO_SetAudioInterface
                0x08006410       0xe4 STM32F4-Discovery\stm32f4_discovery_audio_codec.o
                0x08006410                EVAL_AUDIO_SetAudioInterface
 .text.EVAL_AUDIO_PauseResume
                0x080064f4       0x88 STM32F4-Discovery\stm32f4_discovery_audio_codec.o
                0x080064f4                EVAL_AUDIO_PauseResume
 .text.EVAL_AUDIO_Stop
                0x0800657c       0x9c STM32F4-Discovery\stm32f4_discovery_audio_codec.o
                0x0800657c                EVAL_AUDIO_Stop
 .text.DMA1_Stream7_IRQHandler
                0x08006618        0x4 STM32F4-Discovery\stm32f4_discovery_audio_codec.o
                0x08006618                DMA1_Stream7_IRQHandler
 .text.DMA1_Stream0_IRQHandler
                0x0800661c        0x4 STM32F4-Discovery\stm32f4_discovery_audio_codec.o
                0x0800661c                DMA1_Stream0_IRQHandler
 .text.SPI3_IRQHandler
                0x08006620       0x3c STM32F4-Discovery\stm32f4_discovery_audio_codec.o
                0x08006620                SPI3_IRQHandler
 .text.Audio_MAL_Play
                0x0800665c       0x5c STM32F4-Discovery\stm32f4_discovery_audio_codec.o
                0x0800665c                Audio_MAL_Play
 .text.DAC_Config
                0x080066b8       0x50 STM32F4-Discovery\stm32f4_discovery_audio_codec.o
                0x080066b8                DAC_Config
 .text.EVAL_AUDIO_Init
                0x08006708      0x39c STM32F4-Discovery\stm32f4_discovery_audio_codec.o
                0x08006708                EVAL_AUDIO_Init
 .text.STM_EVAL_LEDInit
                0x08006aa4       0x48 STM32F4-Discovery\stm32f4_discovery.o
                0x08006aa4                STM_EVAL_LEDInit
 .text.STM_EVAL_LEDOn
                0x08006aec       0x18 STM32F4-Discovery\stm32f4_discovery.o
                0x08006aec                STM_EVAL_LEDOn
 .text.STM_EVAL_LEDOff
                0x08006b04       0x18 STM32F4-Discovery\stm32f4_discovery.o
                0x08006b04                STM_EVAL_LEDOff
 .text.STM_EVAL_LEDToggle
                0x08006b1c       0x20 STM32F4-Discovery\stm32f4_discovery.o
                0x08006b1c                STM_EVAL_LEDToggle
 .text.STM_EVAL_PBInit
                0x08006b3c       0xa8 STM32F4-Discovery\stm32f4_discovery.o
                0x08006b3c                STM_EVAL_PBInit
 .text.mem_cpy  0x08006be4       0x10 FAT_FS\ff.o
 .text.mem_set  0x08006bf4        0xc FAT_FS\ff.o
 .text.move_window
                0x08006c00       0x7c FAT_FS\ff.o
 .text.sync     0x08006c7c       0xb2 FAT_FS\ff.o
 *fill*         0x08006d2e        0x2 00
 .text.check_fs
                0x08006d30       0x88 FAT_FS\ff.o
 .text.validate
                0x08006db8       0x26 FAT_FS\ff.o
 .text.get_fat  0x08006dde       0xfe FAT_FS\ff.o
                0x08006dde                get_fat
 .text.put_fat  0x08006edc      0x118 FAT_FS\ff.o
                0x08006edc                put_fat
 .text.create_chain
                0x08006ff4       0xa2 FAT_FS\ff.o
 .text.remove_chain
                0x08007096       0x5a FAT_FS\ff.o
 .text.clust2sect
                0x080070f0       0x18 FAT_FS\ff.o
                0x080070f0                clust2sect
 .text.dir_seek
                0x08007108       0xa6 FAT_FS\ff.o
 .text.dir_remove
                0x080071ae       0x24 FAT_FS\ff.o
 .text.dir_next
                0x080071d2      0x11c FAT_FS\ff.o
 *fill*         0x080072ee        0x2 00
 .text.follow_path
                0x080072f0      0x198 FAT_FS\ff.o
 .text.dir_register
                0x08007488       0x68 FAT_FS\ff.o
 .text.dir_read
                0x080074f0       0x4a FAT_FS\ff.o
 *fill*         0x0800753a        0x2 00
 .text.chk_mounted
                0x0800753c      0x2e4 FAT_FS\ff.o
                0x0800753c                chk_mounted
 .text.f_mount  0x08007820       0x20 FAT_FS\ff.o
                0x08007820                f_mount
 .text.f_open   0x08007840      0x15a FAT_FS\ff.o
                0x08007840                f_open
 .text.f_read   0x0800799a      0x18c FAT_FS\ff.o
                0x0800799a                f_read
 .text.f_write  0x08007b26      0x1bc FAT_FS\ff.o
                0x08007b26                f_write
 .text.f_sync   0x08007ce2       0xa4 FAT_FS\ff.o
                0x08007ce2                f_sync
 .text.f_close  0x08007d86        0xe FAT_FS\ff.o
                0x08007d86                f_close
 .text.f_lseek  0x08007d94      0x186 FAT_FS\ff.o
                0x08007d94                f_lseek
 .text.f_opendir
                0x08007f1a       0x62 FAT_FS\ff.o
                0x08007f1a                f_opendir
 .text.f_unlink
                0x08007f7c       0xa0 FAT_FS\ff.o
                0x08007f7c                f_unlink
 .text.get_fattime
                0x0800801c        0x4 FAT_FS\fattime.o
                0x0800801c                get_fattime
 .text.PDM_Filter_Init
                0x08008020      0x108 ../../../../../Utilities/STM32F4-Discovery\libPDMFilter_GCC.a(pdm_filter.o)
                0x08008020                PDM_Filter_Init
 .text.PDM_Filter_64_LSB
                0x08008128      0x2e4 ../../../../../Utilities/STM32F4-Discovery\libPDMFilter_GCC.a(pdm_filter.o)
                0x08008128                PDM_Filter_64_LSB
 .text.__libc_init_array
                0x0800840c       0x48 c:/program files/atollic/truestudio for stmicroelectronics stm32 lite 2.2.0/armtools/bin/../lib/gcc/arm-atollic-eabi/4.5.1/../../../../arm-atollic-eabi/lib/thumb/thumb2\libc.a(lib_a-init.o)
                0x0800840c                __libc_init_array
 *(.rodata)
 *(.rodata*)
 .rodata.str1.1
                0x08008454        0xa User\waverecorder.o
 .rodata.str1.1
                0x0800845e        0xc User\waveplayer.o
                                 0x16 (size before relaxing)
 .rodata.str1.1
                0x0800846a        0x4 STM32_USB_HOST_Library\Core\usbh_core.o
 *fill*         0x0800846e        0x2 00
 .rodata.BUTTON_CLK
                0x08008470        0x4 STM32F4-Discovery\stm32f4_discovery.o
                0x08008470                BUTTON_CLK
 .rodata.BUTTON_PIN
                0x08008474        0x2 STM32F4-Discovery\stm32f4_discovery.o
                0x08008474                BUTTON_PIN
 *fill*         0x08008476        0x2 00
 .rodata.GPIO_CLK
                0x08008478       0x10 STM32F4-Discovery\stm32f4_discovery.o
                0x08008478                GPIO_CLK
 .rodata.GPIO_PIN
                0x08008488        0x8 STM32F4-Discovery\stm32f4_discovery.o
                0x08008488                GPIO_PIN
 .rodata.BUTTON_PORT_SOURCE
                0x08008490        0x1 STM32F4-Discovery\stm32f4_discovery.o
                0x08008490                BUTTON_PORT_SOURCE
 .rodata.BUTTON_PIN_SOURCE
                0x08008491        0x1 STM32F4-Discovery\stm32f4_discovery.o
                0x08008491                BUTTON_PIN_SOURCE
 .rodata.BUTTON_IRQn
                0x08008492        0x1 STM32F4-Discovery\stm32f4_discovery.o
                0x08008492                BUTTON_IRQn
 *fill*         0x08008493        0x1 00
 .rodata.BUTTON_EXTI_LINE
                0x08008494        0x2 STM32F4-Discovery\stm32f4_discovery.o
                0x08008494                BUTTON_EXTI_LINE
 .rodata.cvt.6243
                0x08008496       0x80 FAT_FS\ff.o
 .rodata.str1.1
                0x08008516       0x33 FAT_FS\ff.o
 *(.glue_7)
 .glue_7        0x00000000        0x0 linker stubs
 *(.glue_7t)
 .glue_7t       0x00000000        0x0 linker stubs
 *(.eh_frame)
 *(.init)
 *fill*         0x08008549        0x3 00
 .init          0x0800854c        0x4 c:/program files/atollic/truestudio for stmicroelectronics stm32 lite 2.2.0/armtools/bin/../lib/gcc/arm-atollic-eabi/4.5.1/thumb/thumb2/crti.o
                0x0800854c                _init
 .init          0x08008550        0x8 c:/program files/atollic/truestudio for stmicroelectronics stm32 lite 2.2.0/armtools/bin/../lib/gcc/arm-atollic-eabi/4.5.1/thumb/thumb2/crtn.o
 *(.fini)
 .fini          0x08008558        0x4 c:/program files/atollic/truestudio for stmicroelectronics stm32 lite 2.2.0/armtools/bin/../lib/gcc/arm-atollic-eabi/4.5.1/thumb/thumb2/crti.o
                0x08008558                _fini
 .fini          0x0800855c        0x8 c:/program files/atollic/truestudio for stmicroelectronics stm32 lite 2.2.0/armtools/bin/../lib/gcc/arm-atollic-eabi/4.5.1/thumb/thumb2/crtn.o
                0x08008564                . = ALIGN (0x4)
                0x08008564                _etext = .

.vfp11_veneer   0x08008564        0x0
 .vfp11_veneer  0x00000000        0x0 linker stubs

.v4_bx          0x08008564        0x0
 .v4_bx         0x00000000        0x0 linker stubs

.ARM.extab
 *(.ARM.extab* .gnu.linkonce.armextab.*)

.ARM            0x08008564        0x0
                0x08008564                __exidx_start = .
 *(.ARM.exidx*)
                0x08008564                __exidx_end = .

.preinit_array  0x08008564        0x0
                0x08008564                PROVIDE (__preinit_array_start, .)
 *(.preinit_array*)
                0x08008564                PROVIDE (__preinit_array_end, .)

.init_array     0x08008564        0x4
                0x08008564                PROVIDE (__init_array_start, .)
 *(SORT(.init_array.*))
 *(.init_array*)
 .init_array    0x08008564        0x4 c:/program files/atollic/truestudio for stmicroelectronics stm32 lite 2.2.0/armtools/bin/../lib/gcc/arm-atollic-eabi/4.5.1/thumb/thumb2/crtbegin.o
                0x08008568                PROVIDE (__init_array_end, .)

.fini_array     0x08008568        0x4
                0x08008568                PROVIDE (__fini_array_start, .)
 *(.fini_array*)
 .fini_array    0x08008568        0x4 c:/program files/atollic/truestudio for stmicroelectronics stm32 lite 2.2.0/armtools/bin/../lib/gcc/arm-atollic-eabi/4.5.1/thumb/thumb2/crtbegin.o
 *(SORT(.fini_array.*))
                0x0800856c                PROVIDE (__fini_array_end, .)
                0x0800856c                _sidata = .

.data           0x20000000      0x3d8 load address 0x0800856c
                0x20000000                . = ALIGN (0x4)
                0x20000000                _sdata = .
 *(.data)
 *(.data*)
 .data.AudioRecChnlNbr
                0x20000000        0x4 User\waverecorder.o
                0x20000000                AudioRecChnlNbr
 .data.AudioRecBitRes
                0x20000004        0x4 User\waverecorder.o
                0x20000004                AudioRecBitRes
 .data.volume   0x20000008        0x1 User\waveplayer.o
                0x20000008                volume
 .data.buffer_switch
                0x20000009        0x1 User\waveplayer.o
                0x20000009                buffer_switch
 .data.WaveFileStatus
                0x2000000a        0x1 User\waveplayer.o
                0x2000000a                WaveFileStatus
 *fill*         0x2000000b        0x1 00
 .data.USR_Callbacks
                0x2000000c       0x48 User\usbh_usr.o
                0x2000000c                USR_Callbacks
 .data.SystemCoreClock
                0x20000054        0x4 User\system_stm32f4xx.o
                0x20000054                SystemCoreClock
 .data.PauseResumeStatus
                0x20000058        0x1 User\stm32f4xx_it.o
                0x20000058                PauseResumeStatus
 *fill*         0x20000059        0x1 00
 .data.CCR_Val  0x2000005a        0x2 User\main.o
                0x2000005a                CCR_Val
 .data.USBH_DeviceConnStatus_cb
                0x2000005c        0xc STM32_USB_HOST_Library\Core\usbh_core.o
                0x2000005c                USBH_DeviceConnStatus_cb
 .data.status.5969
                0x20000068        0x1 STM32_USB_HOST_Library\Class\MSC\usbh_msc_scsi.o
 .data.Stat     0x20000069        0x1 STM32_USB_HOST_Library\Class\MSC\usbh_msc_fatfs.o
 *fill*         0x2000006a        0x2 00
 .data.USBH_MSC_cb
                0x2000006c       0x10 STM32_USB_HOST_Library\Class\MSC\usbh_msc_core.o
                0x2000006c                USBH_MSC_cb
 .data.APBAHBPrescTable
                0x2000007c       0x10 STM32F4xx_StdPeriph_Driver\stm32f4xx_rcc.o
 .data.LIS302DLTimeout
                0x2000008c        0x4 STM32F4-Discovery\stm32f4_discovery_lis302dl.o
                0x2000008c                LIS302DLTimeout
 .data.AUDIO_MAL_DMA_IRQ
                0x20000090        0x4 STM32F4-Discovery\stm32f4_discovery_audio_codec.o
                0x20000090                AUDIO_MAL_DMA_IRQ
 .data.AUDIO_MAL_DMA_FLAG_FE
                0x20000094        0x4 STM32F4-Discovery\stm32f4_discovery_audio_codec.o
                0x20000094                AUDIO_MAL_DMA_FLAG_FE
 .data.AUDIO_MAL_DMA_FLAG_HT
                0x20000098        0x4 STM32F4-Discovery\stm32f4_discovery_audio_codec.o
                0x20000098                AUDIO_MAL_DMA_FLAG_HT
 .data.AUDIO_MAL_DMA_FLAG_TC
                0x2000009c        0x4 STM32F4-Discovery\stm32f4_discovery_audio_codec.o
                0x2000009c                AUDIO_MAL_DMA_FLAG_TC
 .data.AUDIO_MAL_DMA_DREG
                0x200000a0        0x4 STM32F4-Discovery\stm32f4_discovery_audio_codec.o
                0x200000a0                AUDIO_MAL_DMA_DREG
 .data.AUDIO_MAL_DMA_FLAG_TE
                0x200000a4        0x4 STM32F4-Discovery\stm32f4_discovery_audio_codec.o
                0x200000a4                AUDIO_MAL_DMA_FLAG_TE
 .data.AUDIO_MAL_DMA_CLOCK
                0x200000a8        0x4 STM32F4-Discovery\stm32f4_discovery_audio_codec.o
                0x200000a8                AUDIO_MAL_DMA_CLOCK
 .data.AUDIO_MAL_DMA_FLAG_DME
                0x200000ac        0x4 STM32F4-Discovery\stm32f4_discovery_audio_codec.o
                0x200000ac                AUDIO_MAL_DMA_FLAG_DME
 .data.AUDIO_MAL_DMA_STREAM
                0x200000b0        0x4 STM32F4-Discovery\stm32f4_discovery_audio_codec.o
                0x200000b0                AUDIO_MAL_DMA_STREAM
 .data.AudioTotalSize
                0x200000b4        0x4 STM32F4-Discovery\stm32f4_discovery_audio_codec.o
                0x200000b4                AudioTotalSize
 .data.CurrAudioInterface
                0x200000b8        0x4 STM32F4-Discovery\stm32f4_discovery_audio_codec.o
                0x200000b8                CurrAudioInterface
 .data.AudioRemSize
                0x200000bc        0x4 STM32F4-Discovery\stm32f4_discovery_audio_codec.o
                0x200000bc                AudioRemSize
 .data.CODECTimeout
                0x200000c0        0x4 STM32F4-Discovery\stm32f4_discovery_audio_codec.o
                0x200000c0                CODECTimeout
 .data.GPIO_PORT
                0x200000c4       0x10 STM32F4-Discovery\stm32f4_discovery.o
                0x200000c4                GPIO_PORT
 .data.BUTTON_PORT
                0x200000d4        0x4 STM32F4-Discovery\stm32f4_discovery.o
                0x200000d4                BUTTON_PORT
 .data.T0       0x200000d8      0x100 ../../../../../Utilities/STM32F4-Discovery\libPDMFilter_GCC.a(pdm_filter.o)
                0x200000d8                T0
 .data.T1       0x200001d8      0x100 ../../../../../Utilities/STM32F4-Discovery\libPDMFilter_GCC.a(pdm_filter.o)
                0x200001d8                T1
 .data.T2       0x200002d8      0x100 ../../../../../Utilities/STM32F4-Discovery\libPDMFilter_GCC.a(pdm_filter.o)
                0x200002d8                T2
                0x200003d8                . = ALIGN (0x4)
                0x200003d8                _edata = .

.jcr            0x200003d8        0x0 load address 0x08008944
 .jcr           0x200003d8        0x0 c:/program files/atollic/truestudio for stmicroelectronics stm32 lite 2.2.0/armtools/bin/../lib/gcc/arm-atollic-eabi/4.5.1/thumb/thumb2/crtbegin.o
                0x200003d8                . = ALIGN (0x4)

.bss            0x200003d8     0x4214 load address 0x08008944
                0x200003d8                _sbss = .
                0x200003d8                __bss_start__ = _sbss
 *(.bss)
 .bss           0x200003d8        0x1 c:/program files/atollic/truestudio for stmicroelectronics stm32 lite 2.2.0/armtools/bin/../lib/gcc/arm-atollic-eabi/4.5.1/thumb/thumb2/crtbegin.o
 *(.bss*)
 *fill*         0x200003d9        0x1 00
 .bss.InternalBuffer
                0x200003da       0x80 User\waverecorder.o
 *fill*         0x2000045a        0x2 00
 .bss.AudioRecCurrSize
                0x2000045c        0x4 User\waverecorder.o
                0x2000045c                AudioRecCurrSize
 .bss.buf_idx   0x20000460        0x2 User\waverecorder.o
                0x20000460                buf_idx
 .bss.buf_idx1  0x20000462        0x2 User\waverecorder.o
                0x20000462                buf_idx1
 .bss.InternalBufferSize
                0x20000464        0x4 User\waverecorder.o
 .bss.AudioRecInited
                0x20000468        0x4 User\waverecorder.o
 .bss.Data_Status
                0x2000046c        0x4 User\waverecorder.o
                0x2000046c                Data_Status
 .bss.WaveRecStatus
                0x20000470        0x1 User\waverecorder.o
                0x20000470                WaveRecStatus
 *fill*         0x20000471        0x1 00
 .bss.counter   0x20000472        0x2 User\waverecorder.o
                0x20000472                counter
 .bss.Switch    0x20000474        0x1 User\waverecorder.o
                0x20000474                Switch
 *fill*         0x20000475        0x3 00
 .bss.SpeechDataOffset
                0x20000478        0x4 User\waveplayer.o
 .bss.WaveFileName
                0x2000047c        0x4 User\waveplayer.o
 .bss.TimingDelay
                0x20000480        0x4 User\waveplayer.o
 .bss.buffer1   0x20000484      0x800 User\waveplayer.o
                0x20000484                buffer1
 .bss.buffer2   0x20000c84      0x800 User\waveplayer.o
                0x20000c84                buffer2
 .bss.WaveDataLength
                0x20001484        0x4 User\waveplayer.o
                0x20001484                WaveDataLength
 .bss.AudioPlayStart
                0x20001488        0x1 User\waveplayer.o
                0x20001488                AudioPlayStart
 *fill*         0x20001489        0x3 00
 .bss.XferCplt  0x2000148c        0x4 User\waveplayer.o
                0x2000148c                XferCplt
 .bss.Command_index
                0x20001490        0x1 User\usbh_usr.o
                0x20001490                Command_index
 .bss.USBH_USR_ApplicationState
                0x20001491        0x1 User\usbh_usr.o
 *fill*         0x20001492        0x2 00
 .bss.BSP_delay
                0x20001494        0x4 User\usb_bsp.o
                0x20001494                BSP_delay
 .bss.Time_Rec_Base
                0x20001498        0x2 User\stm32f4xx_it.o
                0x20001498                Time_Rec_Base
 .bss.Count     0x2000149a        0x1 User\stm32f4xx_it.o
                0x2000149a                Count
 *fill*         0x2000149b        0x1 00
 .bss.capture   0x2000149c        0x2 User\stm32f4xx_it.o
                0x2000149c                capture
 .bss.LED_Toggle
                0x2000149e        0x1 User\stm32f4xx_it.o
                0x2000149e                LED_Toggle
 .bss.RepeatState
                0x2000149f        0x1 User\main.o
                0x2000149f                RepeatState
 .bss.timeout.5855
                0x200014a0        0x2 STM32_USB_HOST_Library\Core\usbh_core.o
 .bss.maxLunExceed.5941
                0x200014a2        0x1 STM32_USB_HOST_Library\Class\MSC\usbh_msc_core.o
 .bss.MSCErrorCount
                0x200014a3        0x1 STM32_USB_HOST_Library\Class\MSC\usbh_msc_core.o
                0x200014a3                MSCErrorCount
 .bss.datapointer.5917
                0x200014a4        0x4 STM32_USB_HOST_Library\Class\MSC\usbh_msc_bot.o
 .bss.remainingDataLength.5916
                0x200014a8        0x4 STM32_USB_HOST_Library\Class\MSC\usbh_msc_bot.o
 .bss.error_direction.5918
                0x200014ac        0x1 STM32_USB_HOST_Library\Class\MSC\usbh_msc_bot.o
 *fill*         0x200014ad        0x3 00
 .bss.BOTStallErrorCount
                0x200014b0        0x4 STM32_USB_HOST_Library\Class\MSC\usbh_msc_bot.o
 .bss.AUDIO_MAL_DMA_CHANNEL
                0x200014b4        0x4 STM32F4-Discovery\stm32f4_discovery_audio_codec.o
                0x200014b4                AUDIO_MAL_DMA_CHANNEL
 .bss.OutputDev
                0x200014b8        0x1 STM32F4-Discovery\stm32f4_discovery_audio_codec.o
                0x200014b8                OutputDev
 *fill*         0x200014b9        0x1 00
 .bss.Fsid      0x200014ba        0x2 FAT_FS\ff.o
 .bss.FatFs     0x200014bc        0x4 FAT_FS\ff.o
 .bss.stm32_crc
                0x200014c0        0x4 ../../../../../Utilities/STM32F4-Discovery\libPDMFilter_GCC.a(pdm_filter.o)
                0x200014c0                stm32_crc
 *(COMMON)
 COMMON         0x200014c4     0x19f0 User\waverecorder.o
                0x200014c4                bytesWritten
                0x200014c8                writebuffer
                0x200014cc                pAudioRecBuf
                0x200014d0                RAM_Buf
                0x20002088                RecBuf1
                0x200020a8                RecBuf
                0x200020c8                Filter
                0x200020fc                RecBufHeader
                0x200022fc                RAM_Buf1
 COMMON         0x20002eb4       0x26 User\waveplayer.o
                0x20002eb4                WAVE_Format
                0x20002ecc                BytesRead
                0x20002ed0                WaveCounter
                0x20002ed4                Buffer
 *fill*         0x20002eda        0x2 00
 COMMON         0x20002edc      0xcac User\usbh_usr.o
                0x20002edc                fileR
                0x20003300                fno
                0x20003318                file
                0x2000373c                dir
                0x20003758                fatfs
 COMMON         0x20003b88      0x544 User\main.o
                0x20003b88                USB_OTG_Core
                0x20004038                RCC_Clocks
                0x20004048                USB_Host
 COMMON         0x200040cc      0x410 STM32_USB_HOST_Library\Class\MSC\usbh_msc_scsi.o
                0x200040cc                USBH_DataInBuffer
                0x200042cc                USBH_MSC_Param
                0x200042dc                USBH_DataOutBuffer
 COMMON         0x200044dc       0x52 STM32_USB_HOST_Library\Class\MSC\usbh_msc_core.o
                0x200044dc                MSC_Machine
                0x20004526                MSC_Setup
 *fill*         0x2000452e        0x2 00
 COMMON         0x20004530       0x40 STM32_USB_HOST_Library\Class\MSC\usbh_msc_bot.o
                0x20004530                USBH_MSC_CSWData
                0x20004540                USBH_MSC_BOTXferParam
                0x20004550                USBH_MSC_CBWData
 COMMON         0x20004570       0x7c STM32F4-Discovery\stm32f4_discovery_audio_codec.o
                0x20004570                CurrentPos
                0x20004574                AUDIO_MAL_DMA_InitStructure
                0x200045b0                DMA_InitStructure
                0x200045ec                . = ALIGN (0x4)
                0x200045ec                _ebss = .
                0x200045ec                __bss_end__ = _ebss

._user_heap_stack
                0x200045ec      0x400 load address 0x0800cb58
                0x200045ec                . = ALIGN (0x4)
                0x200045ec                PROVIDE (end, .)
                0x200045ec                PROVIDE (_end, .)
                0x200045ec                . = (. + _Min_Heap_Size)
                0x200049ec                . = (. + _Min_Stack_Size)
 *fill*         0x200045ec      0x400 00
                0x200049ec                . = ALIGN (0x4)

.memory_b1_text
 *(.mb1text)
 *(.mb1text*)
 *(.mb1rodata)
 *(.mb1rodata*)

/DISCARD/
 libc.a(*)
 libm.a(*)
 libgcc.a(*)

.ARM.attributes
                0x00000000       0x2d
 *(.ARM.attributes)
 .ARM.attributes
                0x00000000       0x19 c:/program files/atollic/truestudio for stmicroelectronics stm32 lite 2.2.0/armtools/bin/../lib/gcc/arm-atollic-eabi/4.5.1/thumb/thumb2/crti.o
 .ARM.attributes
                0x00000019       0x29 c:/program files/atollic/truestudio for stmicroelectronics stm32 lite 2.2.0/armtools/bin/../lib/gcc/arm-atollic-eabi/4.5.1/thumb/thumb2/crtbegin.o
 .ARM.attributes
                0x00000042       0x31 User\waverecorder.o
 .ARM.attributes
                0x00000073       0x31 User\waveplayer.o
 .ARM.attributes
                0x000000a4       0x31 User\usbh_usr.o
 .ARM.attributes
                0x000000d5       0x31 User\usb_bsp.o
 .ARM.attributes
                0x00000106       0x31 User\system_stm32f4xx.o
 .ARM.attributes
                0x00000137       0x31 User\stm32f4xx_it.o
 .ARM.attributes
                0x00000168       0x31 User\main.o
 .ARM.attributes
                0x00000199       0x21 TrueSTUDIO\startup_stm32f4xx.o
 .ARM.attributes
                0x000001ba       0x31 STM32_USB_OTG_Driver\usb_hcd_int.o
 .ARM.attributes
                0x000001eb       0x31 STM32_USB_OTG_Driver\usb_hcd.o
 .ARM.attributes
                0x0000021c       0x31 STM32_USB_OTG_Driver\usb_core.o
 .ARM.attributes
                0x0000024d       0x31 STM32_USB_HOST_Library\Core\usbh_stdreq.o
 .ARM.attributes
                0x0000027e       0x31 STM32_USB_HOST_Library\Core\usbh_ioreq.o
 .ARM.attributes
                0x000002af       0x31 STM32_USB_HOST_Library\Core\usbh_hcs.o
 .ARM.attributes
                0x000002e0       0x31 STM32_USB_HOST_Library\Core\usbh_core.o
 .ARM.attributes
                0x00000311       0x31 STM32_USB_HOST_Library\Class\MSC\usbh_msc_scsi.o
 .ARM.attributes
                0x00000342       0x31 STM32_USB_HOST_Library\Class\MSC\usbh_msc_fatfs.o
 .ARM.attributes
                0x00000373       0x31 STM32_USB_HOST_Library\Class\MSC\usbh_msc_core.o
 .ARM.attributes
                0x000003a4       0x31 STM32_USB_HOST_Library\Class\MSC\usbh_msc_bot.o
 .ARM.attributes
                0x000003d5       0x31 STM32F4xx_StdPeriph_Driver\stm32f4xx_tim.o
 .ARM.attributes
                0x00000406       0x31 STM32F4xx_StdPeriph_Driver\stm32f4xx_syscfg.o
 .ARM.attributes
                0x00000437       0x31 STM32F4xx_StdPeriph_Driver\stm32f4xx_spi.o
 .ARM.attributes
                0x00000468       0x31 STM32F4xx_StdPeriph_Driver\stm32f4xx_rcc.o
 .ARM.attributes
                0x00000499       0x31 STM32F4xx_StdPeriph_Driver\stm32f4xx_i2c.o
 .ARM.attributes
                0x000004ca       0x31 STM32F4xx_StdPeriph_Driver\stm32f4xx_gpio.o
 .ARM.attributes
                0x000004fb       0x31 STM32F4xx_StdPeriph_Driver\stm32f4xx_flash.o
 .ARM.attributes
                0x0000052c       0x31 STM32F4xx_StdPeriph_Driver\stm32f4xx_exti.o
 .ARM.attributes
                0x0000055d       0x31 STM32F4xx_StdPeriph_Driver\stm32f4xx_dma.o
 .ARM.attributes
                0x0000058e       0x31 STM32F4xx_StdPeriph_Driver\stm32f4xx_dac.o
 .ARM.attributes
                0x000005bf       0x31 STM32F4xx_StdPeriph_Driver\stm32f4xx_adc.o
 .ARM.attributes
                0x000005f0       0x31 STM32F4xx_StdPeriph_Driver\misc.o
 .ARM.attributes
                0x00000621       0x31 STM32F4-Discovery\stm32f4_discovery_lis302dl.o
 .ARM.attributes
                0x00000652       0x31 STM32F4-Discovery\stm32f4_discovery_audio_codec.o
 .ARM.attributes
                0x00000683       0x31 STM32F4-Discovery\stm32f4_discovery.o
 .ARM.attributes
                0x000006b4       0x31 FAT_FS\ff.o
 .ARM.attributes
                0x000006e5       0x31 FAT_FS\fattime.o
 .ARM.attributes
                0x00000716       0x31 ../../../../../Utilities/STM32F4-Discovery\libPDMFilter_GCC.a(pdm_filter.o)
 .ARM.attributes
                0x00000747       0x1b c:/program files/atollic/truestudio for stmicroelectronics stm32 lite 2.2.0/armtools/bin/../lib/gcc/arm-atollic-eabi/4.5.1/thumb/thumb2\libgcc.a(_arm_addsubdf3.o)
 .ARM.attributes
                0x00000762       0x1b c:/program files/atollic/truestudio for stmicroelectronics stm32 lite 2.2.0/armtools/bin/../lib/gcc/arm-atollic-eabi/4.5.1/thumb/thumb2\libgcc.a(_arm_muldivdf3.o)
 .ARM.attributes
                0x0000077d       0x1b c:/program files/atollic/truestudio for stmicroelectronics stm32 lite 2.2.0/armtools/bin/../lib/gcc/arm-atollic-eabi/4.5.1/thumb/thumb2\libgcc.a(_arm_fixunsdfsi.o)
 .ARM.attributes
                0x00000798       0x1b c:/program files/atollic/truestudio for stmicroelectronics stm32 lite 2.2.0/armtools/bin/../lib/gcc/arm-atollic-eabi/4.5.1/thumb/thumb2\libgcc.a(_arm_muldivsf3.o)
 .ARM.attributes
                0x000007b3       0x1b c:/program files/atollic/truestudio for stmicroelectronics stm32 lite 2.2.0/armtools/bin/../lib/gcc/arm-atollic-eabi/4.5.1/thumb/thumb2\libgcc.a(_arm_cmpsf2.o)
 .ARM.attributes
                0x000007ce       0x29 c:/program files/atollic/truestudio for stmicroelectronics stm32 lite 2.2.0/armtools/bin/../lib/gcc/arm-atollic-eabi/4.5.1/../../../../arm-atollic-eabi/lib/thumb/thumb2\libc.a(lib_a-init.o)
 .ARM.attributes
                0x000007f7       0x29 c:/program files/atollic/truestudio for stmicroelectronics stm32 lite 2.2.0/armtools/bin/../lib/gcc/arm-atollic-eabi/4.5.1/thumb/thumb2/crtend.o
 .ARM.attributes
                0x00000820       0x19 c:/program files/atollic/truestudio for stmicroelectronics stm32 lite 2.2.0/armtools/bin/../lib/gcc/arm-atollic-eabi/4.5.1/thumb/thumb2/crtn.o
OUTPUT(MEDIA_USB_KEY.elf elf32-littlearm)

.debug_line     0x00000000     0x9a27
 .debug_line    0x00000000       0x6d c:/program files/atollic/truestudio for stmicroelectronics stm32 lite 2.2.0/armtools/bin/../lib/gcc/arm-atollic-eabi/4.5.1/thumb/thumb2/crti.o
 .debug_line    0x0000006d      0x485 User\waverecorder.o
 .debug_line    0x000004f2      0x5a0 User\waveplayer.o
 .debug_line    0x00000a92      0x405 User\usbh_usr.o
 .debug_line    0x00000e97      0x370 User\usb_bsp.o
 .debug_line    0x00001207      0x1d8 User\system_stm32f4xx.o
 .debug_line    0x000013df      0x30f User\stm32f4xx_it.o
 .debug_line    0x000016ee      0x39e User\main.o
 .debug_line    0x00001a8c       0xb1 TrueSTUDIO\startup_stm32f4xx.o
 .debug_line    0x00001b3d      0x413 STM32_USB_OTG_Driver\usb_hcd_int.o
 .debug_line    0x00001f50      0x27c STM32_USB_OTG_Driver\usb_hcd.o
 .debug_line    0x000021cc      0x5ea STM32_USB_OTG_Driver\usb_core.o
 .debug_line    0x000027b6      0x382 STM32_USB_HOST_Library\Core\usbh_stdreq.o
 .debug_line    0x00002b38      0x2d3 STM32_USB_HOST_Library\Core\usbh_ioreq.o
 .debug_line    0x00002e0b      0x26f STM32_USB_HOST_Library\Core\usbh_hcs.o
 .debug_line    0x0000307a      0x398 STM32_USB_HOST_Library\Core\usbh_core.o
 .debug_line    0x00003412      0x3a5 STM32_USB_HOST_Library\Class\MSC\usbh_msc_scsi.o
 .debug_line    0x000037b7      0x331 STM32_USB_HOST_Library\Class\MSC\usbh_msc_fatfs.o
 .debug_line    0x00003ae8      0x356 STM32_USB_HOST_Library\Class\MSC\usbh_msc_core.o
 .debug_line    0x00003e3e      0x356 STM32_USB_HOST_Library\Class\MSC\usbh_msc_bot.o
 .debug_line    0x00004194      0xab8 STM32F4xx_StdPeriph_Driver\stm32f4xx_tim.o
 .debug_line    0x00004c4c      0x205 STM32F4xx_StdPeriph_Driver\stm32f4xx_syscfg.o
 .debug_line    0x00004e51      0x474 STM32F4xx_StdPeriph_Driver\stm32f4xx_spi.o
 .debug_line    0x000052c5      0x56a STM32F4xx_StdPeriph_Driver\stm32f4xx_rcc.o
 .debug_line    0x0000582f      0x4ec STM32F4xx_StdPeriph_Driver\stm32f4xx_i2c.o
 .debug_line    0x00005d1b      0x327 STM32F4xx_StdPeriph_Driver\stm32f4xx_gpio.o
 .debug_line    0x00006042      0x461 STM32F4xx_StdPeriph_Driver\stm32f4xx_flash.o
 .debug_line    0x000064a3      0x28e STM32F4xx_StdPeriph_Driver\stm32f4xx_exti.o
 .debug_line    0x00006731      0x3bc STM32F4xx_StdPeriph_Driver\stm32f4xx_dma.o
 .debug_line    0x00006aed      0x340 STM32F4xx_StdPeriph_Driver\stm32f4xx_dac.o
 .debug_line    0x00006e2d      0x559 STM32F4xx_StdPeriph_Driver\stm32f4xx_adc.o
 .debug_line    0x00007386      0x23d STM32F4xx_StdPeriph_Driver\misc.o
 .debug_line    0x000075c3      0x3ed STM32F4-Discovery\stm32f4_discovery_lis302dl.o
 .debug_line    0x000079b0      0x6d7 STM32F4-Discovery\stm32f4_discovery_audio_codec.o
 .debug_line    0x00008087      0x2c9 STM32F4-Discovery\stm32f4_discovery.o
 .debug_line    0x00008350      0xdbd FAT_FS\ff.o
 .debug_line    0x0000910d      0x186 FAT_FS\fattime.o
 .debug_line    0x00009293      0x213 c:/program files/atollic/truestudio for stmicroelectronics stm32 lite 2.2.0/armtools/bin/../lib/gcc/arm-atollic-eabi/4.5.1/thumb/thumb2\libgcc.a(_arm_addsubdf3.o)
 .debug_line    0x000094a6      0x22f c:/program files/atollic/truestudio for stmicroelectronics stm32 lite 2.2.0/armtools/bin/../lib/gcc/arm-atollic-eabi/4.5.1/thumb/thumb2\libgcc.a(_arm_muldivdf3.o)
 .debug_line    0x000096d5       0x89 c:/program files/atollic/truestudio for stmicroelectronics stm32 lite 2.2.0/armtools/bin/../lib/gcc/arm-atollic-eabi/4.5.1/thumb/thumb2\libgcc.a(_arm_fixunsdfsi.o)
 .debug_line    0x0000975e      0x150 c:/program files/atollic/truestudio for stmicroelectronics stm32 lite 2.2.0/armtools/bin/../lib/gcc/arm-atollic-eabi/4.5.1/thumb/thumb2\libgcc.a(_arm_muldivsf3.o)
 .debug_line    0x000098ae      0x109 c:/program files/atollic/truestudio for stmicroelectronics stm32 lite 2.2.0/armtools/bin/../lib/gcc/arm-atollic-eabi/4.5.1/thumb/thumb2\libgcc.a(_arm_cmpsf2.o)
 .debug_line    0x000099b7       0x70 c:/program files/atollic/truestudio for stmicroelectronics stm32 lite 2.2.0/armtools/bin/../lib/gcc/arm-atollic-eabi/4.5.1/thumb/thumb2/crtn.o

.debug_info     0x00000000    0x248f8
 .debug_info    0x00000000       0x7e c:/program files/atollic/truestudio for stmicroelectronics stm32 lite 2.2.0/armtools/bin/../lib/gcc/arm-atollic-eabi/4.5.1/thumb/thumb2/crti.o
 .debug_info    0x0000007e     0x1a97 User\waverecorder.o
 .debug_info    0x00001b15     0x1db3 User\waveplayer.o
 .debug_info    0x000038c8      0xe01 User\usbh_usr.o
 .debug_info    0x000046c9     0x13c5 User\usb_bsp.o
 .debug_info    0x00005a8e      0x643 User\system_stm32f4xx.o
 .debug_info    0x000060d1      0xf3a User\stm32f4xx_it.o
 .debug_info    0x0000700b     0x1fa0 User\main.o
 .debug_info    0x00008fab      0x111 TrueSTUDIO\startup_stm32f4xx.o
 .debug_info    0x000090bc     0x1f6c STM32_USB_OTG_Driver\usb_hcd_int.o
 .debug_info    0x0000b028      0xdc2 STM32_USB_OTG_Driver\usb_hcd.o
 .debug_info    0x0000bdea     0x230c STM32_USB_OTG_Driver\usb_core.o
 .debug_info    0x0000e0f6     0x1972 STM32_USB_HOST_Library\Core\usbh_stdreq.o
 .debug_info    0x0000fa68     0x16fa STM32_USB_HOST_Library\Core\usbh_ioreq.o
 .debug_info    0x00011162      0xc5a STM32_USB_HOST_Library\Core\usbh_hcs.o
 .debug_info    0x00011dbc     0x1689 STM32_USB_HOST_Library\Core\usbh_core.o
 .debug_info    0x00013445     0x100f STM32_USB_HOST_Library\Class\MSC\usbh_msc_scsi.o
 .debug_info    0x00014454     0x168b STM32_USB_HOST_Library\Class\MSC\usbh_msc_fatfs.o
 .debug_info    0x00015adf     0x180a STM32_USB_HOST_Library\Class\MSC\usbh_msc_core.o
 .debug_info    0x000172e9     0x1892 STM32_USB_HOST_Library\Class\MSC\usbh_msc_bot.o
 .debug_info    0x00018b7b     0x1e1d STM32F4xx_StdPeriph_Driver\stm32f4xx_tim.o
 .debug_info    0x0001a998      0x279 STM32F4xx_StdPeriph_Driver\stm32f4xx_syscfg.o
 .debug_info    0x0001ac11      0xbb5 STM32F4xx_StdPeriph_Driver\stm32f4xx_spi.o
 .debug_info    0x0001b7c6      0xd05 STM32F4xx_StdPeriph_Driver\stm32f4xx_rcc.o
 .debug_info    0x0001c4cb      0xb6f STM32F4xx_StdPeriph_Driver\stm32f4xx_i2c.o
 .debug_info    0x0001d03a      0x62d STM32F4xx_StdPeriph_Driver\stm32f4xx_gpio.o
 .debug_info    0x0001d667      0x781 STM32F4xx_StdPeriph_Driver\stm32f4xx_flash.o
 .debug_info    0x0001dde8      0x370 STM32F4xx_StdPeriph_Driver\stm32f4xx_exti.o
 .debug_info    0x0001e158      0x78b STM32F4xx_StdPeriph_Driver\stm32f4xx_dma.o
 .debug_info    0x0001e8e3      0x689 STM32F4xx_StdPeriph_Driver\stm32f4xx_dac.o
 .debug_info    0x0001ef6c      0xcce STM32F4xx_StdPeriph_Driver\stm32f4xx_adc.o
 .debug_info    0x0001fc3a      0x596 STM32F4xx_StdPeriph_Driver\misc.o
 .debug_info    0x000201d0      0x870 STM32F4-Discovery\stm32f4_discovery_lis302dl.o
 .debug_info    0x00020a40     0x13ab STM32F4-Discovery\stm32f4_discovery_audio_codec.o
 .debug_info    0x00021deb      0x967 STM32F4-Discovery\stm32f4_discovery.o
 .debug_info    0x00022752     0x1cc0 FAT_FS\ff.o
 .debug_info    0x00024412       0xc6 FAT_FS\fattime.o
 .debug_info    0x000244d8       0xba c:/program files/atollic/truestudio for stmicroelectronics stm32 lite 2.2.0/armtools/bin/../lib/gcc/arm-atollic-eabi/4.5.1/thumb/thumb2\libgcc.a(_arm_addsubdf3.o)
 .debug_info    0x00024592       0xba c:/program files/atollic/truestudio for stmicroelectronics stm32 lite 2.2.0/armtools/bin/../lib/gcc/arm-atollic-eabi/4.5.1/thumb/thumb2\libgcc.a(_arm_muldivdf3.o)
 .debug_info    0x0002464c       0xba c:/program files/atollic/truestudio for stmicroelectronics stm32 lite 2.2.0/armtools/bin/../lib/gcc/arm-atollic-eabi/4.5.1/thumb/thumb2\libgcc.a(_arm_fixunsdfsi.o)
 .debug_info    0x00024706       0xba c:/program files/atollic/truestudio for stmicroelectronics stm32 lite 2.2.0/armtools/bin/../lib/gcc/arm-atollic-eabi/4.5.1/thumb/thumb2\libgcc.a(_arm_muldivsf3.o)
 .debug_info    0x000247c0       0xba c:/program files/atollic/truestudio for stmicroelectronics stm32 lite 2.2.0/armtools/bin/../lib/gcc/arm-atollic-eabi/4.5.1/thumb/thumb2\libgcc.a(_arm_cmpsf2.o)
 .debug_info    0x0002487a       0x7e c:/program files/atollic/truestudio for stmicroelectronics stm32 lite 2.2.0/armtools/bin/../lib/gcc/arm-atollic-eabi/4.5.1/thumb/thumb2/crtn.o

.debug_abbrev   0x00000000     0x4a29
 .debug_abbrev  0x00000000       0x12 c:/program files/atollic/truestudio for stmicroelectronics stm32 lite 2.2.0/armtools/bin/../lib/gcc/arm-atollic-eabi/4.5.1/thumb/thumb2/crti.o
 .debug_abbrev  0x00000012      0x293 User\waverecorder.o
 .debug_abbrev  0x000002a5      0x38b User\waveplayer.o
 .debug_abbrev  0x00000630      0x215 User\usbh_usr.o
 .debug_abbrev  0x00000845      0x2aa User\usb_bsp.o
 .debug_abbrev  0x00000aef      0x16e User\system_stm32f4xx.o
 .debug_abbrev  0x00000c5d      0x1d3 User\stm32f4xx_it.o
 .debug_abbrev  0x00000e30      0x2a1 User\main.o
 .debug_abbrev  0x000010d1       0x12 TrueSTUDIO\startup_stm32f4xx.o
 .debug_abbrev  0x000010e3      0x244 STM32_USB_OTG_Driver\usb_hcd_int.o
 .debug_abbrev  0x00001327      0x1aa STM32_USB_OTG_Driver\usb_hcd.o
 .debug_abbrev  0x000014d1      0x326 STM32_USB_OTG_Driver\usb_core.o
 .debug_abbrev  0x000017f7      0x2f4 STM32_USB_HOST_Library\Core\usbh_stdreq.o
 .debug_abbrev  0x00001aeb      0x208 STM32_USB_HOST_Library\Core\usbh_ioreq.o
 .debug_abbrev  0x00001cf3      0x1f0 STM32_USB_HOST_Library\Core\usbh_hcs.o
 .debug_abbrev  0x00001ee3      0x2d3 STM32_USB_HOST_Library\Core\usbh_core.o
 .debug_abbrev  0x000021b6      0x1d3 STM32_USB_HOST_Library\Class\MSC\usbh_msc_scsi.o
 .debug_abbrev  0x00002389      0x215 STM32_USB_HOST_Library\Class\MSC\usbh_msc_fatfs.o
 .debug_abbrev  0x0000259e      0x2b6 STM32_USB_HOST_Library\Class\MSC\usbh_msc_core.o
 .debug_abbrev  0x00002854      0x21b STM32_USB_HOST_Library\Class\MSC\usbh_msc_bot.o
 .debug_abbrev  0x00002a6f      0x20e STM32F4xx_StdPeriph_Driver\stm32f4xx_tim.o
 .debug_abbrev  0x00002c7d      0x152 STM32F4xx_StdPeriph_Driver\stm32f4xx_syscfg.o
 .debug_abbrev  0x00002dcf      0x1ae STM32F4xx_StdPeriph_Driver\stm32f4xx_spi.o
 .debug_abbrev  0x00002f7d      0x1f8 STM32F4xx_StdPeriph_Driver\stm32f4xx_rcc.o
 .debug_abbrev  0x00003175      0x196 STM32F4xx_StdPeriph_Driver\stm32f4xx_i2c.o
 .debug_abbrev  0x0000330b      0x1d0 STM32F4xx_StdPeriph_Driver\stm32f4xx_gpio.o
 .debug_abbrev  0x000034db      0x1c7 STM32F4xx_StdPeriph_Driver\stm32f4xx_flash.o
 .debug_abbrev  0x000036a2      0x1cf STM32F4xx_StdPeriph_Driver\stm32f4xx_exti.o
 .debug_abbrev  0x00003871      0x19e STM32F4xx_StdPeriph_Driver\stm32f4xx_dma.o
 .debug_abbrev  0x00003a0f      0x1d9 STM32F4xx_StdPeriph_Driver\stm32f4xx_dac.o
 .debug_abbrev  0x00003be8      0x1d7 STM32F4xx_StdPeriph_Driver\stm32f4xx_adc.o
 .debug_abbrev  0x00003dbf      0x14e STM32F4xx_StdPeriph_Driver\misc.o
 .debug_abbrev  0x00003f0d      0x1f9 STM32F4-Discovery\stm32f4_discovery_lis302dl.o
 .debug_abbrev  0x00004106      0x35c STM32F4-Discovery\stm32f4_discovery_audio_codec.o
 .debug_abbrev  0x00004462      0x19e STM32F4-Discovery\stm32f4_discovery.o
 .debug_abbrev  0x00004600      0x34b FAT_FS\ff.o
 .debug_abbrev  0x0000494b       0x68 FAT_FS\fattime.o
 .debug_abbrev  0x000049b3       0x14 c:/program files/atollic/truestudio for stmicroelectronics stm32 lite 2.2.0/armtools/bin/../lib/gcc/arm-atollic-eabi/4.5.1/thumb/thumb2\libgcc.a(_arm_addsubdf3.o)
 .debug_abbrev  0x000049c7       0x14 c:/program files/atollic/truestudio for stmicroelectronics stm32 lite 2.2.0/armtools/bin/../lib/gcc/arm-atollic-eabi/4.5.1/thumb/thumb2\libgcc.a(_arm_muldivdf3.o)
 .debug_abbrev  0x000049db       0x14 c:/program files/atollic/truestudio for stmicroelectronics stm32 lite 2.2.0/armtools/bin/../lib/gcc/arm-atollic-eabi/4.5.1/thumb/thumb2\libgcc.a(_arm_fixunsdfsi.o)
 .debug_abbrev  0x000049ef       0x14 c:/program files/atollic/truestudio for stmicroelectronics stm32 lite 2.2.0/armtools/bin/../lib/gcc/arm-atollic-eabi/4.5.1/thumb/thumb2\libgcc.a(_arm_muldivsf3.o)
 .debug_abbrev  0x00004a03       0x14 c:/program files/atollic/truestudio for stmicroelectronics stm32 lite 2.2.0/armtools/bin/../lib/gcc/arm-atollic-eabi/4.5.1/thumb/thumb2\libgcc.a(_arm_cmpsf2.o)
 .debug_abbrev  0x00004a17       0x12 c:/program files/atollic/truestudio for stmicroelectronics stm32 lite 2.2.0/armtools/bin/../lib/gcc/arm-atollic-eabi/4.5.1/thumb/thumb2/crtn.o

.debug_aranges  0x00000000     0x1640
 .debug_aranges
                0x00000000       0x28 c:/program files/atollic/truestudio for stmicroelectronics stm32 lite 2.2.0/armtools/bin/../lib/gcc/arm-atollic-eabi/4.5.1/thumb/thumb2/crti.o
 .debug_aranges
                0x00000028       0x48 User\waverecorder.o
 .debug_aranges
                0x00000070       0xa0 User\waveplayer.o
 .debug_aranges
                0x00000110       0xb0 User\usbh_usr.o
 .debug_aranges
                0x000001c0       0x60 User\usb_bsp.o
 .debug_aranges
                0x00000220       0x28 User\system_stm32f4xx.o
 .debug_aranges
                0x00000248       0x88 User\stm32f4xx_it.o
 .debug_aranges
                0x000002d0       0x20 User\main.o
 .debug_aranges
                0x000002f0       0x28 TrueSTUDIO\startup_stm32f4xx.o
 .debug_aranges
                0x00000318       0x70 STM32_USB_OTG_Driver\usb_hcd_int.o
 .debug_aranges
                0x00000388       0x68 STM32_USB_OTG_Driver\usb_hcd.o
 .debug_aranges
                0x000003f0       0xf8 STM32_USB_OTG_Driver\usb_core.o
 .debug_aranges
                0x000004e8       0x58 STM32_USB_HOST_Library\Core\usbh_stdreq.o
 .debug_aranges
                0x00000540       0x58 STM32_USB_HOST_Library\Core\usbh_ioreq.o
 .debug_aranges
                0x00000598       0x40 STM32_USB_HOST_Library\Core\usbh_hcs.o
 .debug_aranges
                0x000005d8       0x50 STM32_USB_HOST_Library\Core\usbh_core.o
 .debug_aranges
                0x00000628       0x48 STM32_USB_HOST_Library\Class\MSC\usbh_msc_scsi.o
 .debug_aranges
                0x00000670       0x40 STM32_USB_HOST_Library\Class\MSC\usbh_msc_fatfs.o
 .debug_aranges
                0x000006b0       0x40 STM32_USB_HOST_Library\Class\MSC\usbh_msc_core.o
 .debug_aranges
                0x000006f0       0x38 STM32_USB_HOST_Library\Class\MSC\usbh_msc_bot.o
 .debug_aranges
                0x00000728      0x2e8 STM32F4xx_StdPeriph_Driver\stm32f4xx_tim.o
 .debug_aranges
                0x00000a10       0x48 STM32F4xx_StdPeriph_Driver\stm32f4xx_syscfg.o
 .debug_aranges
                0x00000a58       0xe0 STM32F4xx_StdPeriph_Driver\stm32f4xx_spi.o
 .debug_aranges
                0x00000b38      0x178 STM32F4xx_StdPeriph_Driver\stm32f4xx_rcc.o
 .debug_aranges
                0x00000cb0      0x120 STM32F4xx_StdPeriph_Driver\stm32f4xx_i2c.o
 .debug_aranges
                0x00000dd0       0x88 STM32F4xx_StdPeriph_Driver\stm32f4xx_gpio.o
 .debug_aranges
                0x00000e58      0x108 STM32F4xx_StdPeriph_Driver\stm32f4xx_flash.o
 .debug_aranges
                0x00000f60       0x58 STM32F4xx_StdPeriph_Driver\stm32f4xx_exti.o
 .debug_aranges
                0x00000fb8       0xb0 STM32F4xx_StdPeriph_Driver\stm32f4xx_dma.o
 .debug_aranges
                0x00001068       0xa0 STM32F4xx_StdPeriph_Driver\stm32f4xx_dac.o
 .debug_aranges
                0x00001108      0x148 STM32F4xx_StdPeriph_Driver\stm32f4xx_adc.o
 .debug_aranges
                0x00001250       0x40 STM32F4xx_StdPeriph_Driver\misc.o
 .debug_aranges
                0x00001290       0x70 STM32F4-Discovery\stm32f4_discovery_lis302dl.o
 .debug_aranges
                0x00001300       0xb0 STM32F4-Discovery\stm32f4_discovery_audio_codec.o
 .debug_aranges
                0x000013b0       0x48 STM32F4-Discovery\stm32f4_discovery.o
 .debug_aranges
                0x000013f8      0x160 FAT_FS\ff.o
 .debug_aranges
                0x00001558       0x20 FAT_FS\fattime.o
 .debug_aranges
                0x00001578       0x20 c:/program files/atollic/truestudio for stmicroelectronics stm32 lite 2.2.0/armtools/bin/../lib/gcc/arm-atollic-eabi/4.5.1/thumb/thumb2\libgcc.a(_arm_addsubdf3.o)
 .debug_aranges
                0x00001598       0x20 c:/program files/atollic/truestudio for stmicroelectronics stm32 lite 2.2.0/armtools/bin/../lib/gcc/arm-atollic-eabi/4.5.1/thumb/thumb2\libgcc.a(_arm_muldivdf3.o)
 .debug_aranges
                0x000015b8       0x20 c:/program files/atollic/truestudio for stmicroelectronics stm32 lite 2.2.0/armtools/bin/../lib/gcc/arm-atollic-eabi/4.5.1/thumb/thumb2\libgcc.a(_arm_fixunsdfsi.o)
 .debug_aranges
                0x000015d8       0x20 c:/program files/atollic/truestudio for stmicroelectronics stm32 lite 2.2.0/armtools/bin/../lib/gcc/arm-atollic-eabi/4.5.1/thumb/thumb2\libgcc.a(_arm_muldivsf3.o)
 .debug_aranges
                0x000015f8       0x20 c:/program files/atollic/truestudio for stmicroelectronics stm32 lite 2.2.0/armtools/bin/../lib/gcc/arm-atollic-eabi/4.5.1/thumb/thumb2\libgcc.a(_arm_cmpsf2.o)
 .debug_aranges
                0x00001618       0x28 c:/program files/atollic/truestudio for stmicroelectronics stm32 lite 2.2.0/armtools/bin/../lib/gcc/arm-atollic-eabi/4.5.1/thumb/thumb2/crtn.o

.debug_ranges   0x00000000     0x15b0
 .debug_ranges  0x00000000       0x20 c:/program files/atollic/truestudio for stmicroelectronics stm32 lite 2.2.0/armtools/bin/../lib/gcc/arm-atollic-eabi/4.5.1/thumb/thumb2/crti.o
 .debug_ranges  0x00000020       0x68 User\waverecorder.o
 .debug_ranges  0x00000088       0xc0 User\waveplayer.o
 .debug_ranges  0x00000148       0xa0 User\usbh_usr.o
 .debug_ranges  0x000001e8       0x50 User\usb_bsp.o
 .debug_ranges  0x00000238       0x18 User\system_stm32f4xx.o
 .debug_ranges  0x00000250       0x78 User\stm32f4xx_it.o
 .debug_ranges  0x000002c8       0x10 User\main.o
 .debug_ranges  0x000002d8       0x20 TrueSTUDIO\startup_stm32f4xx.o
 .debug_ranges  0x000002f8       0x60 STM32_USB_OTG_Driver\usb_hcd_int.o
 .debug_ranges  0x00000358       0x58 STM32_USB_OTG_Driver\usb_hcd.o
 .debug_ranges  0x000003b0       0xe8 STM32_USB_OTG_Driver\usb_core.o
 .debug_ranges  0x00000498       0xb8 STM32_USB_HOST_Library\Core\usbh_stdreq.o
 .debug_ranges  0x00000550       0x48 STM32_USB_HOST_Library\Core\usbh_ioreq.o
 .debug_ranges  0x00000598       0x70 STM32_USB_HOST_Library\Core\usbh_hcs.o
 .debug_ranges  0x00000608       0x40 STM32_USB_HOST_Library\Core\usbh_core.o
 .debug_ranges  0x00000648       0x38 STM32_USB_HOST_Library\Class\MSC\usbh_msc_scsi.o
 .debug_ranges  0x00000680       0x30 STM32_USB_HOST_Library\Class\MSC\usbh_msc_fatfs.o
 .debug_ranges  0x000006b0       0x30 STM32_USB_HOST_Library\Class\MSC\usbh_msc_core.o
 .debug_ranges  0x000006e0       0x28 STM32_USB_HOST_Library\Class\MSC\usbh_msc_bot.o
 .debug_ranges  0x00000708      0x308 STM32F4xx_StdPeriph_Driver\stm32f4xx_tim.o
 .debug_ranges  0x00000a10       0x38 STM32F4xx_StdPeriph_Driver\stm32f4xx_syscfg.o
 .debug_ranges  0x00000a48       0xd0 STM32F4xx_StdPeriph_Driver\stm32f4xx_spi.o
 .debug_ranges  0x00000b18      0x168 STM32F4xx_StdPeriph_Driver\stm32f4xx_rcc.o
 .debug_ranges  0x00000c80      0x110 STM32F4xx_StdPeriph_Driver\stm32f4xx_i2c.o
 .debug_ranges  0x00000d90       0x78 STM32F4xx_StdPeriph_Driver\stm32f4xx_gpio.o
 .debug_ranges  0x00000e08       0xf8 STM32F4xx_StdPeriph_Driver\stm32f4xx_flash.o
 .debug_ranges  0x00000f00       0x48 STM32F4xx_StdPeriph_Driver\stm32f4xx_exti.o
 .debug_ranges  0x00000f48       0xa0 STM32F4xx_StdPeriph_Driver\stm32f4xx_dma.o
 .debug_ranges  0x00000fe8       0x90 STM32F4xx_StdPeriph_Driver\stm32f4xx_dac.o
 .debug_ranges  0x00001078      0x138 STM32F4xx_StdPeriph_Driver\stm32f4xx_adc.o
 .debug_ranges  0x000011b0       0x30 STM32F4xx_StdPeriph_Driver\misc.o
 .debug_ranges  0x000011e0       0x90 STM32F4-Discovery\stm32f4_discovery_lis302dl.o
 .debug_ranges  0x00001270      0x118 STM32F4-Discovery\stm32f4_discovery_audio_codec.o
 .debug_ranges  0x00001388       0x38 STM32F4-Discovery\stm32f4_discovery.o
 .debug_ranges  0x000013c0      0x1c0 FAT_FS\ff.o
 .debug_ranges  0x00001580       0x10 FAT_FS\fattime.o
 .debug_ranges  0x00001590       0x20 c:/program files/atollic/truestudio for stmicroelectronics stm32 lite 2.2.0/armtools/bin/../lib/gcc/arm-atollic-eabi/4.5.1/thumb/thumb2/crtn.o

.comment        0x00000000       0xc2
 .comment       0x00000000       0x61 c:/program files/atollic/truestudio for stmicroelectronics stm32 lite 2.2.0/armtools/bin/../lib/gcc/arm-atollic-eabi/4.5.1/thumb/thumb2/crtbegin.o
                                 0x62 (size before relaxing)
 .comment       0x00000061       0x61 User\waverecorder.o
                                 0x62 (size before relaxing)
 .comment       0x00000000       0x62 User\waveplayer.o
 .comment       0x00000000       0x62 User\usbh_usr.o
 .comment       0x00000000       0x62 User\usb_bsp.o
 .comment       0x00000000       0x62 User\system_stm32f4xx.o
 .comment       0x00000000       0x62 User\stm32f4xx_it.o
 .comment       0x00000000       0x62 User\main.o
 .comment       0x00000000       0x62 STM32_USB_OTG_Driver\usb_hcd_int.o
 .comment       0x00000000       0x62 STM32_USB_OTG_Driver\usb_hcd.o
 .comment       0x00000000       0x62 STM32_USB_OTG_Driver\usb_core.o
 .comment       0x00000000       0x62 STM32_USB_HOST_Library\Core\usbh_stdreq.o
 .comment       0x00000000       0x62 STM32_USB_HOST_Library\Core\usbh_ioreq.o
 .comment       0x00000000       0x62 STM32_USB_HOST_Library\Core\usbh_hcs.o
 .comment       0x00000000       0x62 STM32_USB_HOST_Library\Core\usbh_core.o
 .comment       0x00000000       0x62 STM32_USB_HOST_Library\Class\MSC\usbh_msc_scsi.o
 .comment       0x00000000       0x62 STM32_USB_HOST_Library\Class\MSC\usbh_msc_fatfs.o
 .comment       0x00000000       0x62 STM32_USB_HOST_Library\Class\MSC\usbh_msc_core.o
 .comment       0x00000000       0x62 STM32_USB_HOST_Library\Class\MSC\usbh_msc_bot.o
 .comment       0x00000000       0x62 STM32F4xx_StdPeriph_Driver\stm32f4xx_tim.o
 .comment       0x00000000       0x62 STM32F4xx_StdPeriph_Driver\stm32f4xx_syscfg.o
 .comment       0x00000000       0x62 STM32F4xx_StdPeriph_Driver\stm32f4xx_spi.o
 .comment       0x00000000       0x62 STM32F4xx_StdPeriph_Driver\stm32f4xx_rcc.o
 .comment       0x00000000       0x62 STM32F4xx_StdPeriph_Driver\stm32f4xx_i2c.o
 .comment       0x00000000       0x62 STM32F4xx_StdPeriph_Driver\stm32f4xx_gpio.o
 .comment       0x00000000       0x62 STM32F4xx_StdPeriph_Driver\stm32f4xx_flash.o
 .comment       0x00000000       0x62 STM32F4xx_StdPeriph_Driver\stm32f4xx_exti.o
 .comment       0x00000000       0x62 STM32F4xx_StdPeriph_Driver\stm32f4xx_dma.o
 .comment       0x00000000       0x62 STM32F4xx_StdPeriph_Driver\stm32f4xx_dac.o
 .comment       0x00000000       0x62 STM32F4xx_StdPeriph_Driver\stm32f4xx_adc.o
 .comment       0x00000000       0x62 STM32F4xx_StdPeriph_Driver\misc.o
 .comment       0x00000000       0x62 STM32F4-Discovery\stm32f4_discovery_lis302dl.o
 .comment       0x00000000       0x62 STM32F4-Discovery\stm32f4_discovery_audio_codec.o
 .comment       0x00000000       0x62 STM32F4-Discovery\stm32f4_discovery.o
 .comment       0x00000000       0x62 FAT_FS\ff.o
 .comment       0x00000000       0x62 FAT_FS\fattime.o
 .comment       0x00000000       0x62 ../../../../../Utilities/STM32F4-Discovery\libPDMFilter_GCC.a(pdm_filter.o)
 .comment       0x00000000       0x62 c:/program files/atollic/truestudio for stmicroelectronics stm32 lite 2.2.0/armtools/bin/../lib/gcc/arm-atollic-eabi/4.5.1/../../../../arm-atollic-eabi/lib/thumb/thumb2\libc.a(lib_a-init.o)
 .comment       0x00000000       0x62 c:/program files/atollic/truestudio for stmicroelectronics stm32 lite 2.2.0/armtools/bin/../lib/gcc/arm-atollic-eabi/4.5.1/thumb/thumb2/crtend.o

.debug_loc      0x00000000     0xb5eb
 .debug_loc     0x00000000      0x1e0 User\waverecorder.o
 .debug_loc     0x000001e0      0x33e User\waveplayer.o
 .debug_loc     0x0000051e       0x80 User\usbh_usr.o
 .debug_loc     0x0000059e      0x174 User\usb_bsp.o
 .debug_loc     0x00000712      0x10e User\system_stm32f4xx.o
 .debug_loc     0x00000820       0x80 User\stm32f4xx_it.o
 .debug_loc     0x000008a0       0x7d User\main.o
 .debug_loc     0x0000091d      0x70f STM32_USB_OTG_Driver\usb_hcd_int.o
 .debug_loc     0x0000102c      0x1cf STM32_USB_OTG_Driver\usb_hcd.o
 .debug_loc     0x000011fb      0xbcf STM32_USB_OTG_Driver\usb_core.o
 .debug_loc     0x00001dca      0x515 STM32_USB_HOST_Library\Core\usbh_stdreq.o
 .debug_loc     0x000022df      0x491 STM32_USB_HOST_Library\Core\usbh_ioreq.o
 .debug_loc     0x00002770      0x220 STM32_USB_HOST_Library\Core\usbh_hcs.o
 .debug_loc     0x00002990      0x417 STM32_USB_HOST_Library\Core\usbh_core.o
 .debug_loc     0x00002da7      0x46b STM32_USB_HOST_Library\Class\MSC\usbh_msc_scsi.o
 .debug_loc     0x00003212      0x2cb STM32_USB_HOST_Library\Class\MSC\usbh_msc_fatfs.o
 .debug_loc     0x000034dd      0x316 STM32_USB_HOST_Library\Class\MSC\usbh_msc_core.o
 .debug_loc     0x000037f3      0x349 STM32_USB_HOST_Library\Class\MSC\usbh_msc_bot.o
 .debug_loc     0x00003b3c     0x114a STM32F4xx_StdPeriph_Driver\stm32f4xx_tim.o
 .debug_loc     0x00004c86       0x9d STM32F4xx_StdPeriph_Driver\stm32f4xx_syscfg.o
 .debug_loc     0x00004d23      0x513 STM32F4xx_StdPeriph_Driver\stm32f4xx_spi.o
 .debug_loc     0x00005236      0x6c0 STM32F4xx_StdPeriph_Driver\stm32f4xx_rcc.o
 .debug_loc     0x000058f6      0x60a STM32F4xx_StdPeriph_Driver\stm32f4xx_i2c.o
 .debug_loc     0x00005f00      0x278 STM32F4xx_StdPeriph_Driver\stm32f4xx_gpio.o
 .debug_loc     0x00006178      0x589 STM32F4xx_StdPeriph_Driver\stm32f4xx_flash.o
 .debug_loc     0x00006701      0x12b STM32F4xx_StdPeriph_Driver\stm32f4xx_exti.o
 .debug_loc     0x0000682c      0x308 STM32F4xx_StdPeriph_Driver\stm32f4xx_dma.o
 .debug_loc     0x00006b34      0x3bd STM32F4xx_StdPeriph_Driver\stm32f4xx_dac.o
 .debug_loc     0x00006ef1      0x8fa STM32F4xx_StdPeriph_Driver\stm32f4xx_adc.o
 .debug_loc     0x000077eb       0xff STM32F4xx_StdPeriph_Driver\misc.o
 .debug_loc     0x000078ea      0x4b0 STM32F4-Discovery\stm32f4_discovery_lis302dl.o
 .debug_loc     0x00007d9a      0x6e1 STM32F4-Discovery\stm32f4_discovery_audio_codec.o
 .debug_loc     0x0000847b       0xb8 STM32F4-Discovery\stm32f4_discovery.o
 .debug_loc     0x00008533     0x30b8 FAT_FS\ff.o

.debug_pubnames
                0x00000000     0x379e
 .debug_pubnames
                0x00000000      0x1a4 User\waverecorder.o
 .debug_pubnames
                0x000001a4      0x26e User\waveplayer.o
 .debug_pubnames
                0x00000412      0x2bb User\usbh_usr.o
 .debug_pubnames
                0x000006cd       0xf3 User\usb_bsp.o
 .debug_pubnames
                0x000007c0       0x61 User\system_stm32f4xx.o
 .debug_pubnames
                0x00000821      0x17b User\stm32f4xx_it.o
 .debug_pubnames
                0x0000099c       0x64 User\main.o
 .debug_pubnames
                0x00000a00       0x2b STM32_USB_OTG_Driver\usb_hcd_int.o
 .debug_pubnames
                0x00000a2b       0xdc STM32_USB_OTG_Driver\usb_hcd.o
 .debug_pubnames
                0x00000b07      0x29e STM32_USB_OTG_Driver\usb_core.o
 .debug_pubnames
                0x00000da5       0xa3 STM32_USB_HOST_Library\Core\usbh_stdreq.o
 .debug_pubnames
                0x00000e48       0xcd STM32_USB_HOST_Library\Core\usbh_ioreq.o
 .debug_pubnames
                0x00000f15       0x8c STM32_USB_HOST_Library\Core\usbh_hcs.o
 .debug_pubnames
                0x00000fa1       0xaf STM32_USB_HOST_Library\Core\usbh_core.o
 .debug_pubnames
                0x00001050       0xe4 STM32_USB_HOST_Library\Class\MSC\usbh_msc_scsi.o
 .debug_pubnames
                0x00001134       0x62 STM32_USB_HOST_Library\Class\MSC\usbh_msc_fatfs.o
 .debug_pubnames
                0x00001196       0x6b STM32_USB_HOST_Library\Class\MSC\usbh_msc_core.o
 .debug_pubnames
                0x00001201       0xb1 STM32_USB_HOST_Library\Class\MSC\usbh_msc_bot.o
 .debug_pubnames
                0x000012b2      0x7c4 STM32F4xx_StdPeriph_Driver\stm32f4xx_tim.o
 .debug_pubnames
                0x00001a76       0xc3 STM32F4xx_StdPeriph_Driver\stm32f4xx_syscfg.o
 .debug_pubnames
                0x00001b39      0x221 STM32F4xx_StdPeriph_Driver\stm32f4xx_spi.o
 .debug_pubnames
                0x00001d5a      0x417 STM32F4xx_StdPeriph_Driver\stm32f4xx_rcc.o
 .debug_pubnames
                0x00002171      0x2cb STM32F4xx_StdPeriph_Driver\stm32f4xx_i2c.o
 .debug_pubnames
                0x0000243c      0x12d STM32F4xx_StdPeriph_Driver\stm32f4xx_gpio.o
 .debug_pubnames
                0x00002569      0x2bd STM32F4xx_StdPeriph_Driver\stm32f4xx_flash.o
 .debug_pubnames
                0x00002826       0xbb STM32F4xx_StdPeriph_Driver\stm32f4xx_exti.o
 .debug_pubnames
                0x000028e1      0x1c9 STM32F4xx_StdPeriph_Driver\stm32f4xx_dma.o
 .debug_pubnames
                0x00002aaa      0x17d STM32F4xx_StdPeriph_Driver\stm32f4xx_dac.o
 .debug_pubnames
                0x00002c27      0x446 STM32F4xx_StdPeriph_Driver\stm32f4xx_adc.o
 .debug_pubnames
                0x0000306d       0x89 STM32F4xx_StdPeriph_Driver\misc.o
 .debug_pubnames
                0x000030f6      0x10c STM32F4-Discovery\stm32f4_discovery_lis302dl.o
 .debug_pubnames
                0x00003202      0x2d5 STM32F4-Discovery\stm32f4_discovery_audio_codec.o
 .debug_pubnames
                0x000034d7      0x150 STM32F4-Discovery\stm32f4_discovery.o
 .debug_pubnames
                0x00003627      0x155 FAT_FS\ff.o
 .debug_pubnames
                0x0000377c       0x22 FAT_FS\fattime.o

.debug_pubtypes
                0x00000000     0x5244
 .debug_pubtypes
                0x00000000      0x378 User\waverecorder.o
 .debug_pubtypes
                0x00000378      0x401 User\waveplayer.o
 .debug_pubtypes
                0x00000779      0x1dd User\usbh_usr.o
 .debug_pubtypes
                0x00000956      0x31b User\usb_bsp.o
 .debug_pubtypes
                0x00000c71       0x83 User\system_stm32f4xx.o
 .debug_pubtypes
                0x00000cf4      0x241 User\stm32f4xx_it.o
 .debug_pubtypes
                0x00000f35      0x572 User\main.o
 .debug_pubtypes
                0x000014a7      0x4d0 STM32_USB_OTG_Driver\usb_hcd_int.o
 .debug_pubtypes
                0x00001977      0x282 STM32_USB_OTG_Driver\usb_hcd.o
 .debug_pubtypes
                0x00001bf9      0x5a2 STM32_USB_OTG_Driver\usb_core.o
 .debug_pubtypes
                0x0000219b      0x4ee STM32_USB_HOST_Library\Core\usbh_stdreq.o
 .debug_pubtypes
                0x00002689      0x4ae STM32_USB_HOST_Library\Core\usbh_ioreq.o
 .debug_pubtypes
                0x00002b37      0x231 STM32_USB_HOST_Library\Core\usbh_hcs.o
 .debug_pubtypes
                0x00002d68      0x4ca STM32_USB_HOST_Library\Core\usbh_core.o
 .debug_pubtypes
                0x00003232      0x319 STM32_USB_HOST_Library\Class\MSC\usbh_msc_scsi.o
 .debug_pubtypes
                0x0000354b      0x51e STM32_USB_HOST_Library\Class\MSC\usbh_msc_fatfs.o
 .debug_pubtypes
                0x00003a69      0x4fd STM32_USB_HOST_Library\Class\MSC\usbh_msc_core.o
 .debug_pubtypes
                0x00003f66      0x567 STM32_USB_HOST_Library\Class\MSC\usbh_msc_bot.o
 .debug_pubtypes
                0x000044cd       0xe4 STM32F4xx_StdPeriph_Driver\stm32f4xx_tim.o
 .debug_pubtypes
                0x000045b1       0x6d STM32F4xx_StdPeriph_Driver\stm32f4xx_syscfg.o
 .debug_pubtypes
                0x0000461e       0xbc STM32F4xx_StdPeriph_Driver\stm32f4xx_spi.o
 .debug_pubtypes
                0x000046da       0xaa STM32F4xx_StdPeriph_Driver\stm32f4xx_rcc.o
 .debug_pubtypes
                0x00004784       0xbe STM32F4xx_StdPeriph_Driver\stm32f4xx_i2c.o
 .debug_pubtypes
                0x00004842       0xce STM32F4xx_StdPeriph_Driver\stm32f4xx_gpio.o
 .debug_pubtypes
                0x00004910       0x97 STM32F4xx_StdPeriph_Driver\stm32f4xx_flash.o
 .debug_pubtypes
                0x000049a7       0xae STM32F4xx_StdPeriph_Driver\stm32f4xx_exti.o
 .debug_pubtypes
                0x00004a55       0xa3 STM32F4xx_StdPeriph_Driver\stm32f4xx_dma.o
 .debug_pubtypes
                0x00004af8       0x98 STM32F4xx_StdPeriph_Driver\stm32f4xx_dac.o
 .debug_pubtypes
                0x00004b90       0xc9 STM32F4xx_StdPeriph_Driver\stm32f4xx_adc.o
 .debug_pubtypes
                0x00004c59       0x8c STM32F4xx_StdPeriph_Driver\misc.o
 .debug_pubtypes
                0x00004ce5      0x14d STM32F4-Discovery\stm32f4_discovery_lis302dl.o
 .debug_pubtypes
                0x00004e32      0x179 STM32F4-Discovery\stm32f4_discovery_audio_codec.o
 .debug_pubtypes
                0x00004fab      0x16e STM32F4-Discovery\stm32f4_discovery.o
 .debug_pubtypes
                0x00005119      0x103 FAT_FS\ff.o
 .debug_pubtypes
                0x0000521c       0x28 FAT_FS\fattime.o

.debug_str      0x00000000     0x7afd
 .debug_str     0x00000000     0x132c User\waverecorder.o
                               0x149c (size before relaxing)
 .debug_str     0x0000132c      0x6a5 User\waveplayer.o
                               0x1800 (size before relaxing)
 .debug_str     0x000019d1      0x575 User\usbh_usr.o
                                0xaab (size before relaxing)
 .debug_str     0x00001f46      0x1c2 User\usb_bsp.o
                               0x112e (size before relaxing)
 .debug_str     0x00002108      0x10d User\system_stm32f4xx.o
                                0x371 (size before relaxing)
 .debug_str     0x00002215      0x119 User\stm32f4xx_it.o
                                0x9c4 (size before relaxing)
 .debug_str     0x0000232e      0x83a User\main.o
                               0x1aba (size before relaxing)
 .debug_str     0x00002b68      0x661 STM32_USB_OTG_Driver\usb_hcd_int.o
                                0xf18 (size before relaxing)
 .debug_str     0x000031c9      0x104 STM32_USB_OTG_Driver\usb_hcd.o
                                0x90e (size before relaxing)
 .debug_str     0x000032cd      0x60b STM32_USB_OTG_Driver\usb_core.o
                               0x1351 (size before relaxing)
 .debug_str     0x000038d8      0x1ef STM32_USB_HOST_Library\Core\usbh_stdreq.o
                               0x12e0 (size before relaxing)
 .debug_str     0x00003ac7      0x104 STM32_USB_HOST_Library\Core\usbh_ioreq.o
                               0x11e9 (size before relaxing)
 .debug_str     0x00003bcb       0xd2 STM32_USB_HOST_Library\Core\usbh_hcs.o
                                0x878 (size before relaxing)
 .debug_str     0x00003c9d       0xf5 STM32_USB_HOST_Library\Core\usbh_core.o
                               0x122d (size before relaxing)
 .debug_str     0x00003d92      0x44a STM32_USB_HOST_Library\Class\MSC\usbh_msc_scsi.o
                                0xc24 (size before relaxing)
 .debug_str     0x000041dc       0xd1 STM32_USB_HOST_Library\Class\MSC\usbh_msc_fatfs.o
                               0x12ab (size before relaxing)
 .debug_str     0x000042ad      0x173 STM32_USB_HOST_Library\Class\MSC\usbh_msc_core.o
                               0x14a6 (size before relaxing)
 .debug_str     0x00004420       0xf7 STM32_USB_HOST_Library\Class\MSC\usbh_msc_bot.o
                               0x148e (size before relaxing)
 .debug_str     0x00004517      0xa10 STM32F4xx_StdPeriph_Driver\stm32f4xx_tim.o
                                0xdbc (size before relaxing)
 .debug_str     0x00004f27      0x162 STM32F4xx_StdPeriph_Driver\stm32f4xx_syscfg.o
                                0x2eb (size before relaxing)
 .debug_str     0x00005089      0x32f STM32F4xx_StdPeriph_Driver\stm32f4xx_spi.o
                                0x676 (size before relaxing)
 .debug_str     0x000053b8      0x4f1 STM32F4xx_StdPeriph_Driver\stm32f4xx_rcc.o
                                0x83c (size before relaxing)
 .debug_str     0x000058a9      0x3c1 STM32F4xx_StdPeriph_Driver\stm32f4xx_i2c.o
                                0x651 (size before relaxing)
 .debug_str     0x00005c6a      0x181 STM32F4xx_StdPeriph_Driver\stm32f4xx_gpio.o
                                0x48f (size before relaxing)
 .debug_str     0x00005deb      0x3ac STM32F4xx_StdPeriph_Driver\stm32f4xx_flash.o
                                0x573 (size before relaxing)
 .debug_str     0x00006197       0xff STM32F4xx_StdPeriph_Driver\stm32f4xx_exti.o
                                0x35a (size before relaxing)
 .debug_str     0x00006296      0x383 STM32F4xx_StdPeriph_Driver\stm32f4xx_dma.o
                                0x538 (size before relaxing)
 .debug_str     0x00006619      0x28d STM32F4xx_StdPeriph_Driver\stm32f4xx_dac.o
                                0x43f (size before relaxing)
 .debug_str     0x000068a6      0x615 STM32F4xx_StdPeriph_Driver\stm32f4xx_adc.o
                                0x7f0 (size before relaxing)
 .debug_str     0x00006ebb      0x101 STM32F4xx_StdPeriph_Driver\misc.o
                                0x3c5 (size before relaxing)
 .debug_str     0x00006fbc      0x24b STM32F4-Discovery\stm32f4_discovery_lis302dl.o
                                0x736 (size before relaxing)
 .debug_str     0x00007207      0x450 STM32F4-Discovery\stm32f4_discovery_audio_codec.o
                               0x1050 (size before relaxing)
 .debug_str     0x00007657      0x167 STM32F4-Discovery\stm32f4_discovery.o
                                0xb15 (size before relaxing)
 .debug_str     0x000077be      0x2f9 FAT_FS\ff.o
                                0x6d0 (size before relaxing)
 .debug_str     0x00007ab7       0x46 FAT_FS\fattime.o
                                0x187 (size before relaxing)

.debug_frame    0x00000000     0x3108
 .debug_frame   0x00000000       0xc8 User\waverecorder.o
 .debug_frame   0x000000c8      0x198 User\waveplayer.o
 .debug_frame   0x00000260      0x168 User\usbh_usr.o
 .debug_frame   0x000003c8       0xe4 User\usb_bsp.o
 .debug_frame   0x000004ac       0x34 User\system_stm32f4xx.o
 .debug_frame   0x000004e0      0x114 User\stm32f4xx_it.o
 .debug_frame   0x000005f4       0x30 User\main.o
 .debug_frame   0x00000624      0x168 STM32_USB_OTG_Driver\usb_hcd_int.o
 .debug_frame   0x0000078c       0xd8 STM32_USB_OTG_Driver\usb_hcd.o
 .debug_frame   0x00000864      0x290 STM32_USB_OTG_Driver\usb_core.o
 .debug_frame   0x00000af4       0xf8 STM32_USB_HOST_Library\Core\usbh_stdreq.o
 .debug_frame   0x00000bec       0xf0 STM32_USB_HOST_Library\Core\usbh_ioreq.o
 .debug_frame   0x00000cdc       0x84 STM32_USB_HOST_Library\Core\usbh_hcs.o
 .debug_frame   0x00000d60       0xc0 STM32_USB_HOST_Library\Core\usbh_core.o
 .debug_frame   0x00000e20       0xbc STM32_USB_HOST_Library\Class\MSC\usbh_msc_scsi.o
 .debug_frame   0x00000edc       0x88 STM32_USB_HOST_Library\Class\MSC\usbh_msc_fatfs.o
 .debug_frame   0x00000f64       0x90 STM32_USB_HOST_Library\Class\MSC\usbh_msc_core.o
 .debug_frame   0x00000ff4       0x78 STM32_USB_HOST_Library\Class\MSC\usbh_msc_bot.o
 .debug_frame   0x0000106c      0x674 STM32F4xx_StdPeriph_Driver\stm32f4xx_tim.o
 .debug_frame   0x000016e0       0x84 STM32F4xx_StdPeriph_Driver\stm32f4xx_syscfg.o
 .debug_frame   0x00001764      0x1d0 STM32F4xx_StdPeriph_Driver\stm32f4xx_spi.o
 .debug_frame   0x00001934      0x2e4 STM32F4xx_StdPeriph_Driver\stm32f4xx_rcc.o
 .debug_frame   0x00001c18      0x244 STM32F4xx_StdPeriph_Driver\stm32f4xx_i2c.o
 .debug_frame   0x00001e5c      0x118 STM32F4xx_StdPeriph_Driver\stm32f4xx_gpio.o
 .debug_frame   0x00001f74      0x264 STM32F4xx_StdPeriph_Driver\stm32f4xx_flash.o
 .debug_frame   0x000021d8       0x98 STM32F4xx_StdPeriph_Driver\stm32f4xx_exti.o
 .debug_frame   0x00002270      0x170 STM32F4xx_StdPeriph_Driver\stm32f4xx_dma.o
 .debug_frame   0x000023e0      0x140 STM32F4xx_StdPeriph_Driver\stm32f4xx_dac.o
 .debug_frame   0x00002520      0x2ac STM32F4xx_StdPeriph_Driver\stm32f4xx_adc.o
 .debug_frame   0x000027cc       0x68 STM32F4xx_StdPeriph_Driver\misc.o
 .debug_frame   0x00002834      0x158 STM32F4-Discovery\stm32f4_discovery_lis302dl.o
 .debug_frame   0x0000298c      0x1e4 STM32F4-Discovery\stm32f4_discovery_audio_codec.o
 .debug_frame   0x00002b70       0x94 STM32F4-Discovery\stm32f4_discovery.o
 .debug_frame   0x00002c04      0x4e4 FAT_FS\ff.o
 .debug_frame   0x000030e8       0x20 FAT_FS\fattime.o

Cross Reference Table

Symbol                                            File
ADC_AnalogWatchdogCmd                             STM32F4xx_StdPeriph_Driver\stm32f4xx_adc.o
ADC_AnalogWatchdogSingleChannelConfig             STM32F4xx_StdPeriph_Driver\stm32f4xx_adc.o
ADC_AnalogWatchdogThresholdsConfig                STM32F4xx_StdPeriph_Driver\stm32f4xx_adc.o
ADC_AutoInjectedConvCmd                           STM32F4xx_StdPeriph_Driver\stm32f4xx_adc.o
ADC_ClearFlag                                     STM32F4xx_StdPeriph_Driver\stm32f4xx_adc.o
ADC_ClearITPendingBit                             STM32F4xx_StdPeriph_Driver\stm32f4xx_adc.o
ADC_Cmd                                           STM32F4xx_StdPeriph_Driver\stm32f4xx_adc.o
ADC_CommonInit                                    STM32F4xx_StdPeriph_Driver\stm32f4xx_adc.o
ADC_CommonStructInit                              STM32F4xx_StdPeriph_Driver\stm32f4xx_adc.o
ADC_ContinuousModeCmd                             STM32F4xx_StdPeriph_Driver\stm32f4xx_adc.o
ADC_DMACmd                                        STM32F4xx_StdPeriph_Driver\stm32f4xx_adc.o
ADC_DMARequestAfterLastTransferCmd                STM32F4xx_StdPeriph_Driver\stm32f4xx_adc.o
ADC_DeInit                                        STM32F4xx_StdPeriph_Driver\stm32f4xx_adc.o
ADC_DiscModeChannelCountConfig                    STM32F4xx_StdPeriph_Driver\stm32f4xx_adc.o
ADC_DiscModeCmd                                   STM32F4xx_StdPeriph_Driver\stm32f4xx_adc.o
ADC_EOCOnEachRegularChannelCmd                    STM32F4xx_StdPeriph_Driver\stm32f4xx_adc.o
ADC_ExternalTrigInjectedConvConfig                STM32F4xx_StdPeriph_Driver\stm32f4xx_adc.o
ADC_ExternalTrigInjectedConvEdgeConfig            STM32F4xx_StdPeriph_Driver\stm32f4xx_adc.o
ADC_GetConversionValue                            STM32F4xx_StdPeriph_Driver\stm32f4xx_adc.o
ADC_GetFlagStatus                                 STM32F4xx_StdPeriph_Driver\stm32f4xx_adc.o
ADC_GetITStatus                                   STM32F4xx_StdPeriph_Driver\stm32f4xx_adc.o
ADC_GetInjectedConversionValue                    STM32F4xx_StdPeriph_Driver\stm32f4xx_adc.o
ADC_GetMultiModeConversionValue                   STM32F4xx_StdPeriph_Driver\stm32f4xx_adc.o
ADC_GetSoftwareStartConvStatus                    STM32F4xx_StdPeriph_Driver\stm32f4xx_adc.o
ADC_GetSoftwareStartInjectedConvCmdStatus         STM32F4xx_StdPeriph_Driver\stm32f4xx_adc.o
ADC_IRQHandler                                    TrueSTUDIO\startup_stm32f4xx.o
ADC_ITConfig                                      STM32F4xx_StdPeriph_Driver\stm32f4xx_adc.o
ADC_Init                                          STM32F4xx_StdPeriph_Driver\stm32f4xx_adc.o
ADC_InjectedChannelConfig                         STM32F4xx_StdPeriph_Driver\stm32f4xx_adc.o
ADC_InjectedDiscModeCmd                           STM32F4xx_StdPeriph_Driver\stm32f4xx_adc.o
ADC_InjectedSequencerLengthConfig                 STM32F4xx_StdPeriph_Driver\stm32f4xx_adc.o
ADC_MultiModeDMARequestAfterLastTransferCmd       STM32F4xx_StdPeriph_Driver\stm32f4xx_adc.o
ADC_RegularChannelConfig                          STM32F4xx_StdPeriph_Driver\stm32f4xx_adc.o
ADC_SetInjectedOffset                             STM32F4xx_StdPeriph_Driver\stm32f4xx_adc.o
ADC_SoftwareStartConv                             STM32F4xx_StdPeriph_Driver\stm32f4xx_adc.o
ADC_SoftwareStartInjectedConv                     STM32F4xx_StdPeriph_Driver\stm32f4xx_adc.o
ADC_StructInit                                    STM32F4xx_StdPeriph_Driver\stm32f4xx_adc.o
ADC_TempSensorVrefintCmd                          STM32F4xx_StdPeriph_Driver\stm32f4xx_adc.o
ADC_VBATCmd                                       STM32F4xx_StdPeriph_Driver\stm32f4xx_adc.o
AHBPrescTable                                     User\system_stm32f4xx.o
AUDIO_MAL_DMA_CHANNEL                             STM32F4-Discovery\stm32f4_discovery_audio_codec.o
AUDIO_MAL_DMA_CLOCK                               STM32F4-Discovery\stm32f4_discovery_audio_codec.o
AUDIO_MAL_DMA_DREG                                STM32F4-Discovery\stm32f4_discovery_audio_codec.o
AUDIO_MAL_DMA_FLAG_DME                            STM32F4-Discovery\stm32f4_discovery_audio_codec.o
AUDIO_MAL_DMA_FLAG_FE                             STM32F4-Discovery\stm32f4_discovery_audio_codec.o
AUDIO_MAL_DMA_FLAG_HT                             STM32F4-Discovery\stm32f4_discovery_audio_codec.o
AUDIO_MAL_DMA_FLAG_TC                             STM32F4-Discovery\stm32f4_discovery_audio_codec.o
AUDIO_MAL_DMA_FLAG_TE                             STM32F4-Discovery\stm32f4_discovery_audio_codec.o
AUDIO_MAL_DMA_IRQ                                 STM32F4-Discovery\stm32f4_discovery_audio_codec.o
AUDIO_MAL_DMA_InitStructure                       STM32F4-Discovery\stm32f4_discovery_audio_codec.o
AUDIO_MAL_DMA_STREAM                              STM32F4-Discovery\stm32f4_discovery_audio_codec.o
AudioFlashPlay                                    User\waveplayer.o
AudioPlayStart                                    User\waveplayer.o
                                                  User\stm32f4xx_it.o
AudioRecBitRes                                    User\waverecorder.o
AudioRecChnlNbr                                   User\waverecorder.o
AudioRecCurrSize                                  User\waverecorder.o
AudioRemSize                                      STM32F4-Discovery\stm32f4_discovery_audio_codec.o
                                                  User\waveplayer.o
AudioTotalSize                                    STM32F4-Discovery\stm32f4_discovery_audio_codec.o
Audio_MAL_Play                                    STM32F4-Discovery\stm32f4_discovery_audio_codec.o
                                                  User\waveplayer.o
BSP_Init                                          User\usb_bsp.o
BSP_delay                                         User\usb_bsp.o
BUTTON_CLK                                        STM32F4-Discovery\stm32f4_discovery.o
BUTTON_EXTI_LINE                                  STM32F4-Discovery\stm32f4_discovery.o
BUTTON_IRQn                                       STM32F4-Discovery\stm32f4_discovery.o
BUTTON_PIN                                        STM32F4-Discovery\stm32f4_discovery.o
BUTTON_PIN_SOURCE                                 STM32F4-Discovery\stm32f4_discovery.o
BUTTON_PORT                                       STM32F4-Discovery\stm32f4_discovery.o
BUTTON_PORT_SOURCE                                STM32F4-Discovery\stm32f4_discovery.o
Buffer                                            User\stm32f4xx_it.o
                                                  User\waveplayer.o
BusFault_Handler                                  User\stm32f4xx_it.o
BytesRead                                         User\waveplayer.o
CAN1_RX0_IRQHandler                               TrueSTUDIO\startup_stm32f4xx.o
CAN1_RX1_IRQHandler                               TrueSTUDIO\startup_stm32f4xx.o
CAN1_SCE_IRQHandler                               TrueSTUDIO\startup_stm32f4xx.o
CAN1_TX_IRQHandler                                TrueSTUDIO\startup_stm32f4xx.o
CAN2_RX0_IRQHandler                               TrueSTUDIO\startup_stm32f4xx.o
CAN2_RX1_IRQHandler                               TrueSTUDIO\startup_stm32f4xx.o
CAN2_SCE_IRQHandler                               TrueSTUDIO\startup_stm32f4xx.o
CAN2_TX_IRQHandler                                TrueSTUDIO\startup_stm32f4xx.o
CCR_Val                                           User\main.o
                                                  User\stm32f4xx_it.o
CODECTimeout                                      STM32F4-Discovery\stm32f4_discovery_audio_codec.o
COMMAND_AudioExecuteApplication                   User\usbh_usr.o
CRYP_IRQHandler                                   TrueSTUDIO\startup_stm32f4xx.o
Codec_TIMEOUT_UserCallback                        User\waveplayer.o
                                                  STM32F4-Discovery\stm32f4_discovery_audio_codec.o
Command_index                                     User\usbh_usr.o
                                                  User\stm32f4xx_it.o
                                                  User\waveplayer.o
                                                  User\waverecorder.o
Count                                             User\stm32f4xx_it.o
                                                  User\waveplayer.o
CurrAudioInterface                                STM32F4-Discovery\stm32f4_discovery_audio_codec.o
CurrentPos                                        STM32F4-Discovery\stm32f4_discovery_audio_codec.o
DAC_ClearFlag                                     STM32F4xx_StdPeriph_Driver\stm32f4xx_dac.o
DAC_ClearITPendingBit                             STM32F4xx_StdPeriph_Driver\stm32f4xx_dac.o
DAC_Cmd                                           STM32F4xx_StdPeriph_Driver\stm32f4xx_dac.o
                                                  STM32F4-Discovery\stm32f4_discovery_audio_codec.o
DAC_Config                                        STM32F4-Discovery\stm32f4_discovery_audio_codec.o
DAC_DMACmd                                        STM32F4xx_StdPeriph_Driver\stm32f4xx_dac.o
DAC_DeInit                                        STM32F4xx_StdPeriph_Driver\stm32f4xx_dac.o
DAC_DualSoftwareTriggerCmd                        STM32F4xx_StdPeriph_Driver\stm32f4xx_dac.o
DAC_GetDataOutputValue                            STM32F4xx_StdPeriph_Driver\stm32f4xx_dac.o
DAC_GetFlagStatus                                 STM32F4xx_StdPeriph_Driver\stm32f4xx_dac.o
DAC_GetITStatus                                   STM32F4xx_StdPeriph_Driver\stm32f4xx_dac.o
DAC_ITConfig                                      STM32F4xx_StdPeriph_Driver\stm32f4xx_dac.o
DAC_Init                                          STM32F4xx_StdPeriph_Driver\stm32f4xx_dac.o
                                                  STM32F4-Discovery\stm32f4_discovery_audio_codec.o
DAC_SetChannel1Data                               STM32F4xx_StdPeriph_Driver\stm32f4xx_dac.o
                                                  STM32F4-Discovery\stm32f4_discovery_audio_codec.o
DAC_SetChannel2Data                               STM32F4xx_StdPeriph_Driver\stm32f4xx_dac.o
DAC_SetDualChannelData                            STM32F4xx_StdPeriph_Driver\stm32f4xx_dac.o
DAC_SoftwareTriggerCmd                            STM32F4xx_StdPeriph_Driver\stm32f4xx_dac.o
DAC_StructInit                                    STM32F4xx_StdPeriph_Driver\stm32f4xx_dac.o
DAC_WaveGenerationCmd                             STM32F4xx_StdPeriph_Driver\stm32f4xx_dac.o
DCMI_IRQHandler                                   TrueSTUDIO\startup_stm32f4xx.o
DMA1_Stream0_IRQHandler                           STM32F4-Discovery\stm32f4_discovery_audio_codec.o
                                                  TrueSTUDIO\startup_stm32f4xx.o
DMA1_Stream1_IRQHandler                           TrueSTUDIO\startup_stm32f4xx.o
DMA1_Stream2_IRQHandler                           TrueSTUDIO\startup_stm32f4xx.o
DMA1_Stream3_IRQHandler                           TrueSTUDIO\startup_stm32f4xx.o
DMA1_Stream4_IRQHandler                           TrueSTUDIO\startup_stm32f4xx.o
DMA1_Stream5_IRQHandler                           TrueSTUDIO\startup_stm32f4xx.o
DMA1_Stream6_IRQHandler                           TrueSTUDIO\startup_stm32f4xx.o
DMA1_Stream7_IRQHandler                           STM32F4-Discovery\stm32f4_discovery_audio_codec.o
                                                  TrueSTUDIO\startup_stm32f4xx.o
DMA2_Stream0_IRQHandler                           TrueSTUDIO\startup_stm32f4xx.o
DMA2_Stream1_IRQHandler                           TrueSTUDIO\startup_stm32f4xx.o
DMA2_Stream2_IRQHandler                           TrueSTUDIO\startup_stm32f4xx.o
DMA2_Stream3_IRQHandler                           TrueSTUDIO\startup_stm32f4xx.o
DMA2_Stream4_IRQHandler                           TrueSTUDIO\startup_stm32f4xx.o
DMA2_Stream5_IRQHandler                           TrueSTUDIO\startup_stm32f4xx.o
DMA2_Stream6_IRQHandler                           TrueSTUDIO\startup_stm32f4xx.o
DMA2_Stream7_IRQHandler                           TrueSTUDIO\startup_stm32f4xx.o
DMA_ClearFlag                                     STM32F4xx_StdPeriph_Driver\stm32f4xx_dma.o
                                                  STM32F4-Discovery\stm32f4_discovery_audio_codec.o
DMA_ClearITPendingBit                             STM32F4xx_StdPeriph_Driver\stm32f4xx_dma.o
DMA_Cmd                                           STM32F4xx_StdPeriph_Driver\stm32f4xx_dma.o
                                                  STM32F4-Discovery\stm32f4_discovery_audio_codec.o
DMA_DeInit                                        STM32F4xx_StdPeriph_Driver\stm32f4xx_dma.o
                                                  STM32F4-Discovery\stm32f4_discovery_audio_codec.o
DMA_DoubleBufferModeCmd                           STM32F4xx_StdPeriph_Driver\stm32f4xx_dma.o
DMA_DoubleBufferModeConfig                        STM32F4xx_StdPeriph_Driver\stm32f4xx_dma.o
DMA_FlowControllerConfig                          STM32F4xx_StdPeriph_Driver\stm32f4xx_dma.o
DMA_GetCmdStatus                                  STM32F4xx_StdPeriph_Driver\stm32f4xx_dma.o
                                                  STM32F4-Discovery\stm32f4_discovery_audio_codec.o
DMA_GetCurrDataCounter                            STM32F4xx_StdPeriph_Driver\stm32f4xx_dma.o
DMA_GetCurrentMemoryTarget                        STM32F4xx_StdPeriph_Driver\stm32f4xx_dma.o
DMA_GetFIFOStatus                                 STM32F4xx_StdPeriph_Driver\stm32f4xx_dma.o
DMA_GetFlagStatus                                 STM32F4xx_StdPeriph_Driver\stm32f4xx_dma.o
                                                  STM32F4-Discovery\stm32f4_discovery_audio_codec.o
DMA_GetITStatus                                   STM32F4xx_StdPeriph_Driver\stm32f4xx_dma.o
DMA_ITConfig                                      STM32F4xx_StdPeriph_Driver\stm32f4xx_dma.o
                                                  STM32F4-Discovery\stm32f4_discovery_audio_codec.o
DMA_Init                                          STM32F4xx_StdPeriph_Driver\stm32f4xx_dma.o
                                                  STM32F4-Discovery\stm32f4_discovery_audio_codec.o
DMA_InitStructure                                 STM32F4-Discovery\stm32f4_discovery_audio_codec.o
DMA_MemoryTargetConfig                            STM32F4xx_StdPeriph_Driver\stm32f4xx_dma.o
DMA_PeriphIncOffsetSizeConfig                     STM32F4xx_StdPeriph_Driver\stm32f4xx_dma.o
DMA_SetCurrDataCounter                            STM32F4xx_StdPeriph_Driver\stm32f4xx_dma.o
DMA_StructInit                                    STM32F4xx_StdPeriph_Driver\stm32f4xx_dma.o
Data_Status                                       User\waverecorder.o
DebugMon_Handler                                  User\stm32f4xx_it.o
Default_Handler                                   TrueSTUDIO\startup_stm32f4xx.o
Delay                                             User\waveplayer.o
ETH_IRQHandler                                    TrueSTUDIO\startup_stm32f4xx.o
ETH_WKUP_IRQHandler                               TrueSTUDIO\startup_stm32f4xx.o
EVAL_AUDIO_DeInit                                 STM32F4-Discovery\stm32f4_discovery_audio_codec.o
EVAL_AUDIO_Error_CallBack                         User\waveplayer.o
EVAL_AUDIO_GetSampleCallBack                      User\waveplayer.o
                                                  STM32F4-Discovery\stm32f4_discovery_audio_codec.o
EVAL_AUDIO_HalfTransfer_CallBack                  User\waveplayer.o
EVAL_AUDIO_Init                                   STM32F4-Discovery\stm32f4_discovery_audio_codec.o
                                                  User\waveplayer.o
EVAL_AUDIO_Mute                                   STM32F4-Discovery\stm32f4_discovery_audio_codec.o
EVAL_AUDIO_PauseResume                            STM32F4-Discovery\stm32f4_discovery_audio_codec.o
                                                  User\waveplayer.o
EVAL_AUDIO_Play                                   STM32F4-Discovery\stm32f4_discovery_audio_codec.o
                                                  User\waveplayer.o
EVAL_AUDIO_SetAudioInterface                      STM32F4-Discovery\stm32f4_discovery_audio_codec.o
                                                  User\waveplayer.o
EVAL_AUDIO_Stop                                   STM32F4-Discovery\stm32f4_discovery_audio_codec.o
                                                  User\stm32f4xx_it.o
                                                  User\waveplayer.o
EVAL_AUDIO_TransferComplete_CallBack              User\waveplayer.o
                                                  STM32F4-Discovery\stm32f4_discovery_audio_codec.o
EVAL_AUDIO_VolumeCtl                              STM32F4-Discovery\stm32f4_discovery_audio_codec.o
                                                  User\waveplayer.o
EXTI0_IRQHandler                                  User\stm32f4xx_it.o
EXTI15_10_IRQHandler                              TrueSTUDIO\startup_stm32f4xx.o
EXTI1_IRQHandler                                  User\stm32f4xx_it.o
EXTI2_IRQHandler                                  TrueSTUDIO\startup_stm32f4xx.o
EXTI3_IRQHandler                                  TrueSTUDIO\startup_stm32f4xx.o
EXTI4_IRQHandler                                  TrueSTUDIO\startup_stm32f4xx.o
EXTI9_5_IRQHandler                                TrueSTUDIO\startup_stm32f4xx.o
EXTI_ClearFlag                                    STM32F4xx_StdPeriph_Driver\stm32f4xx_exti.o
EXTI_ClearITPendingBit                            STM32F4xx_StdPeriph_Driver\stm32f4xx_exti.o
                                                  User\stm32f4xx_it.o
EXTI_DeInit                                       STM32F4xx_StdPeriph_Driver\stm32f4xx_exti.o
EXTI_GenerateSWInterrupt                          STM32F4xx_StdPeriph_Driver\stm32f4xx_exti.o
EXTI_GetFlagStatus                                STM32F4xx_StdPeriph_Driver\stm32f4xx_exti.o
EXTI_GetITStatus                                  STM32F4xx_StdPeriph_Driver\stm32f4xx_exti.o
                                                  User\stm32f4xx_it.o
EXTI_Init                                         STM32F4xx_StdPeriph_Driver\stm32f4xx_exti.o
                                                  STM32F4-Discovery\stm32f4_discovery.o
                                                  User\waveplayer.o
EXTI_StructInit                                   STM32F4xx_StdPeriph_Driver\stm32f4xx_exti.o
FLASH_ClearFlag                                   STM32F4xx_StdPeriph_Driver\stm32f4xx_flash.o
FLASH_DataCacheCmd                                STM32F4xx_StdPeriph_Driver\stm32f4xx_flash.o
FLASH_DataCacheReset                              STM32F4xx_StdPeriph_Driver\stm32f4xx_flash.o
FLASH_EraseAllSectors                             STM32F4xx_StdPeriph_Driver\stm32f4xx_flash.o
FLASH_EraseSector                                 STM32F4xx_StdPeriph_Driver\stm32f4xx_flash.o
FLASH_GetFlagStatus                               STM32F4xx_StdPeriph_Driver\stm32f4xx_flash.o
FLASH_GetStatus                                   STM32F4xx_StdPeriph_Driver\stm32f4xx_flash.o
FLASH_IRQHandler                                  TrueSTUDIO\startup_stm32f4xx.o
FLASH_ITConfig                                    STM32F4xx_StdPeriph_Driver\stm32f4xx_flash.o
FLASH_InstructionCacheCmd                         STM32F4xx_StdPeriph_Driver\stm32f4xx_flash.o
FLASH_InstructionCacheReset                       STM32F4xx_StdPeriph_Driver\stm32f4xx_flash.o
FLASH_Lock                                        STM32F4xx_StdPeriph_Driver\stm32f4xx_flash.o
FLASH_OB_BORConfig                                STM32F4xx_StdPeriph_Driver\stm32f4xx_flash.o
FLASH_OB_GetBOR                                   STM32F4xx_StdPeriph_Driver\stm32f4xx_flash.o
FLASH_OB_GetRDP                                   STM32F4xx_StdPeriph_Driver\stm32f4xx_flash.o
FLASH_OB_GetUser                                  STM32F4xx_StdPeriph_Driver\stm32f4xx_flash.o
FLASH_OB_GetWRP                                   STM32F4xx_StdPeriph_Driver\stm32f4xx_flash.o
FLASH_OB_Launch                                   STM32F4xx_StdPeriph_Driver\stm32f4xx_flash.o
FLASH_OB_Lock                                     STM32F4xx_StdPeriph_Driver\stm32f4xx_flash.o
FLASH_OB_RDPConfig                                STM32F4xx_StdPeriph_Driver\stm32f4xx_flash.o
FLASH_OB_Unlock                                   STM32F4xx_StdPeriph_Driver\stm32f4xx_flash.o
FLASH_OB_UserConfig                               STM32F4xx_StdPeriph_Driver\stm32f4xx_flash.o
FLASH_OB_WRPConfig                                STM32F4xx_StdPeriph_Driver\stm32f4xx_flash.o
FLASH_PrefetchBufferCmd                           STM32F4xx_StdPeriph_Driver\stm32f4xx_flash.o
FLASH_ProgramByte                                 STM32F4xx_StdPeriph_Driver\stm32f4xx_flash.o
FLASH_ProgramDoubleWord                           STM32F4xx_StdPeriph_Driver\stm32f4xx_flash.o
FLASH_ProgramHalfWord                             STM32F4xx_StdPeriph_Driver\stm32f4xx_flash.o
FLASH_ProgramWord                                 STM32F4xx_StdPeriph_Driver\stm32f4xx_flash.o
FLASH_SetLatency                                  STM32F4xx_StdPeriph_Driver\stm32f4xx_flash.o
FLASH_Unlock                                      STM32F4xx_StdPeriph_Driver\stm32f4xx_flash.o
FLASH_WaitForLastOperation                        STM32F4xx_StdPeriph_Driver\stm32f4xx_flash.o
FPU_IRQHandler                                    TrueSTUDIO\startup_stm32f4xx.o
FSMC_IRQHandler                                   TrueSTUDIO\startup_stm32f4xx.o
Filter                                            User\waverecorder.o
GPIO_CLK                                          STM32F4-Discovery\stm32f4_discovery.o
GPIO_DeInit                                       STM32F4xx_StdPeriph_Driver\stm32f4xx_gpio.o
GPIO_Init                                         STM32F4xx_StdPeriph_Driver\stm32f4xx_gpio.o
                                                  STM32F4-Discovery\stm32f4_discovery.o
                                                  STM32F4-Discovery\stm32f4_discovery_audio_codec.o
                                                  STM32F4-Discovery\stm32f4_discovery_lis302dl.o
                                                  User\usb_bsp.o
                                                  User\waveplayer.o
                                                  User\waverecorder.o
GPIO_PIN                                          STM32F4-Discovery\stm32f4_discovery.o
GPIO_PORT                                         STM32F4-Discovery\stm32f4_discovery.o
GPIO_PinAFConfig                                  STM32F4xx_StdPeriph_Driver\stm32f4xx_gpio.o
                                                  STM32F4-Discovery\stm32f4_discovery_audio_codec.o
                                                  STM32F4-Discovery\stm32f4_discovery_lis302dl.o
                                                  User\usb_bsp.o
                                                  User\waverecorder.o
GPIO_PinLockConfig                                STM32F4xx_StdPeriph_Driver\stm32f4xx_gpio.o
GPIO_ReadInputData                                STM32F4xx_StdPeriph_Driver\stm32f4xx_gpio.o
GPIO_ReadInputDataBit                             STM32F4xx_StdPeriph_Driver\stm32f4xx_gpio.o
                                                  STM32F4-Discovery\stm32f4_discovery.o
GPIO_ReadOutputData                               STM32F4xx_StdPeriph_Driver\stm32f4xx_gpio.o
GPIO_ReadOutputDataBit                            STM32F4xx_StdPeriph_Driver\stm32f4xx_gpio.o
GPIO_ResetBits                                    STM32F4xx_StdPeriph_Driver\stm32f4xx_gpio.o
                                                  STM32F4-Discovery\stm32f4_discovery_lis302dl.o
                                                  User\usb_bsp.o
GPIO_SetBits                                      STM32F4xx_StdPeriph_Driver\stm32f4xx_gpio.o
                                                  STM32F4-Discovery\stm32f4_discovery_lis302dl.o
                                                  User\usb_bsp.o
GPIO_StructInit                                   STM32F4xx_StdPeriph_Driver\stm32f4xx_gpio.o
GPIO_ToggleBits                                   STM32F4xx_StdPeriph_Driver\stm32f4xx_gpio.o
GPIO_Write                                        STM32F4xx_StdPeriph_Driver\stm32f4xx_gpio.o
GPIO_WriteBit                                     STM32F4xx_StdPeriph_Driver\stm32f4xx_gpio.o
                                                  STM32F4-Discovery\stm32f4_discovery_audio_codec.o
HASH_RNG_IRQHandler                               TrueSTUDIO\startup_stm32f4xx.o
HCD_GetCurrentFrame                               STM32_USB_OTG_Driver\usb_hcd.o
                                                  STM32_USB_HOST_Library\Core\usbh_core.o
HCD_GetCurrentSpeed                               STM32_USB_OTG_Driver\usb_hcd.o
                                                  STM32_USB_HOST_Library\Core\usbh_core.o
HCD_GetHCState                                    STM32_USB_OTG_Driver\usb_hcd.o
HCD_GetURB_State                                  STM32_USB_OTG_Driver\usb_hcd.o
                                                  STM32_USB_HOST_Library\Class\MSC\usbh_msc_bot.o
                                                  STM32_USB_HOST_Library\Core\usbh_core.o
                                                  STM32_USB_HOST_Library\Core\usbh_ioreq.o
HCD_GetXferCnt                                    STM32_USB_OTG_Driver\usb_hcd.o
                                                  STM32_USB_HOST_Library\Class\MSC\usbh_msc_bot.o
HCD_HC_Init                                       STM32_USB_OTG_Driver\usb_hcd.o
HCD_Init                                          STM32_USB_OTG_Driver\usb_hcd.o
                                                  STM32_USB_HOST_Library\Core\usbh_core.o
HCD_IsDeviceConnected                             STM32_USB_OTG_Driver\usb_hcd.o
                                                  STM32_USB_HOST_Library\Class\MSC\usbh_msc_bot.o
                                                  STM32_USB_HOST_Library\Class\MSC\usbh_msc_core.o
                                                  STM32_USB_HOST_Library\Class\MSC\usbh_msc_fatfs.o
                                                  STM32_USB_HOST_Library\Class\MSC\usbh_msc_scsi.o
                                                  STM32_USB_HOST_Library\Core\usbh_core.o
                                                  User\waveplayer.o
                                                  User\waverecorder.o
HCD_ResetPort                                     STM32_USB_OTG_Driver\usb_hcd.o
                                                  STM32_USB_HOST_Library\Core\usbh_core.o
HCD_SubmitRequest                                 STM32_USB_OTG_Driver\usb_hcd.o
                                                  STM32_USB_HOST_Library\Core\usbh_ioreq.o
HSEStartUpStatus                                  User\usb_bsp.o
HardFault_Handler                                 User\stm32f4xx_it.o
I2C1_ER_IRQHandler                                TrueSTUDIO\startup_stm32f4xx.o
I2C1_EV_IRQHandler                                TrueSTUDIO\startup_stm32f4xx.o
I2C2_ER_IRQHandler                                TrueSTUDIO\startup_stm32f4xx.o
I2C2_EV_IRQHandler                                TrueSTUDIO\startup_stm32f4xx.o
I2C3_ER_IRQHandler                                TrueSTUDIO\startup_stm32f4xx.o
I2C3_EV_IRQHandler                                TrueSTUDIO\startup_stm32f4xx.o
I2C_ARPCmd                                        STM32F4xx_StdPeriph_Driver\stm32f4xx_i2c.o
I2C_AcknowledgeConfig                             STM32F4xx_StdPeriph_Driver\stm32f4xx_i2c.o
                                                  STM32F4-Discovery\stm32f4_discovery_audio_codec.o
I2C_CalculatePEC                                  STM32F4xx_StdPeriph_Driver\stm32f4xx_i2c.o
I2C_CheckEvent                                    STM32F4xx_StdPeriph_Driver\stm32f4xx_i2c.o
                                                  STM32F4-Discovery\stm32f4_discovery_audio_codec.o
I2C_ClearFlag                                     STM32F4xx_StdPeriph_Driver\stm32f4xx_i2c.o
                                                  STM32F4-Discovery\stm32f4_discovery_audio_codec.o
I2C_ClearITPendingBit                             STM32F4xx_StdPeriph_Driver\stm32f4xx_i2c.o
I2C_Cmd                                           STM32F4xx_StdPeriph_Driver\stm32f4xx_i2c.o
                                                  STM32F4-Discovery\stm32f4_discovery_audio_codec.o
I2C_DMACmd                                        STM32F4xx_StdPeriph_Driver\stm32f4xx_i2c.o
I2C_DMALastTransferCmd                            STM32F4xx_StdPeriph_Driver\stm32f4xx_i2c.o
I2C_DeInit                                        STM32F4xx_StdPeriph_Driver\stm32f4xx_i2c.o
                                                  STM32F4-Discovery\stm32f4_discovery_audio_codec.o
I2C_DualAddressCmd                                STM32F4xx_StdPeriph_Driver\stm32f4xx_i2c.o
I2C_FastModeDutyCycleConfig                       STM32F4xx_StdPeriph_Driver\stm32f4xx_i2c.o
I2C_GeneralCallCmd                                STM32F4xx_StdPeriph_Driver\stm32f4xx_i2c.o
I2C_GenerateSTART                                 STM32F4xx_StdPeriph_Driver\stm32f4xx_i2c.o
                                                  STM32F4-Discovery\stm32f4_discovery_audio_codec.o
I2C_GenerateSTOP                                  STM32F4xx_StdPeriph_Driver\stm32f4xx_i2c.o
                                                  STM32F4-Discovery\stm32f4_discovery_audio_codec.o
I2C_GetFlagStatus                                 STM32F4xx_StdPeriph_Driver\stm32f4xx_i2c.o
                                                  STM32F4-Discovery\stm32f4_discovery_audio_codec.o
I2C_GetITStatus                                   STM32F4xx_StdPeriph_Driver\stm32f4xx_i2c.o
I2C_GetLastEvent                                  STM32F4xx_StdPeriph_Driver\stm32f4xx_i2c.o
I2C_GetPEC                                        STM32F4xx_StdPeriph_Driver\stm32f4xx_i2c.o
I2C_ITConfig                                      STM32F4xx_StdPeriph_Driver\stm32f4xx_i2c.o
I2C_Init                                          STM32F4xx_StdPeriph_Driver\stm32f4xx_i2c.o
                                                  STM32F4-Discovery\stm32f4_discovery_audio_codec.o
I2C_NACKPositionConfig                            STM32F4xx_StdPeriph_Driver\stm32f4xx_i2c.o
I2C_OwnAddress2Config                             STM32F4xx_StdPeriph_Driver\stm32f4xx_i2c.o
I2C_PECPositionConfig                             STM32F4xx_StdPeriph_Driver\stm32f4xx_i2c.o
I2C_ReadRegister                                  STM32F4xx_StdPeriph_Driver\stm32f4xx_i2c.o
I2C_ReceiveData                                   STM32F4xx_StdPeriph_Driver\stm32f4xx_i2c.o
                                                  STM32F4-Discovery\stm32f4_discovery_audio_codec.o
I2C_SMBusAlertConfig                              STM32F4xx_StdPeriph_Driver\stm32f4xx_i2c.o
I2C_Send7bitAddress                               STM32F4xx_StdPeriph_Driver\stm32f4xx_i2c.o
                                                  STM32F4-Discovery\stm32f4_discovery_audio_codec.o
I2C_SendData                                      STM32F4xx_StdPeriph_Driver\stm32f4xx_i2c.o
                                                  STM32F4-Discovery\stm32f4_discovery_audio_codec.o
I2C_SoftwareResetCmd                              STM32F4xx_StdPeriph_Driver\stm32f4xx_i2c.o
I2C_StretchClockCmd                               STM32F4xx_StdPeriph_Driver\stm32f4xx_i2c.o
I2C_StructInit                                    STM32F4xx_StdPeriph_Driver\stm32f4xx_i2c.o
I2C_TransmitPEC                                   STM32F4xx_StdPeriph_Driver\stm32f4xx_i2c.o
I2S_Cmd                                           STM32F4xx_StdPeriph_Driver\stm32f4xx_spi.o
                                                  STM32F4-Discovery\stm32f4_discovery_audio_codec.o
                                                  User\waverecorder.o
I2S_FullDuplexConfig                              STM32F4xx_StdPeriph_Driver\stm32f4xx_spi.o
I2S_Init                                          STM32F4xx_StdPeriph_Driver\stm32f4xx_spi.o
                                                  STM32F4-Discovery\stm32f4_discovery_audio_codec.o
                                                  User\waverecorder.o
I2S_StructInit                                    STM32F4xx_StdPeriph_Driver\stm32f4xx_spi.o
LED_Toggle                                        User\stm32f4xx_it.o
                                                  User\main.o
                                                  User\usbh_usr.o
                                                  User\waveplayer.o
                                                  User\waverecorder.o
LIS302DLTimeout                                   STM32F4-Discovery\stm32f4_discovery_lis302dl.o
LIS302DL_DataRateCmd                              STM32F4-Discovery\stm32f4_discovery_lis302dl.o
LIS302DL_FilterConfig                             STM32F4-Discovery\stm32f4_discovery_lis302dl.o
LIS302DL_FullScaleCmd                             STM32F4-Discovery\stm32f4_discovery_lis302dl.o
LIS302DL_Init                                     STM32F4-Discovery\stm32f4_discovery_lis302dl.o
                                                  User\waveplayer.o
LIS302DL_InterruptConfig                          STM32F4-Discovery\stm32f4_discovery_lis302dl.o
                                                  User\waveplayer.o
LIS302DL_LowpowerCmd                              STM32F4-Discovery\stm32f4_discovery_lis302dl.o
LIS302DL_Read                                     STM32F4-Discovery\stm32f4_discovery_lis302dl.o
                                                  User\stm32f4xx_it.o
LIS302DL_ReadACC                                  STM32F4-Discovery\stm32f4_discovery_lis302dl.o
LIS302DL_RebootCmd                                STM32F4-Discovery\stm32f4_discovery_lis302dl.o
LIS302DL_TIMEOUT_UserCallback                     User\waveplayer.o
                                                  STM32F4-Discovery\stm32f4_discovery_lis302dl.o
LIS302DL_Write                                    STM32F4-Discovery\stm32f4_discovery_lis302dl.o
                                                  User\waveplayer.o
MSCErrorCount                                     STM32_USB_HOST_Library\Class\MSC\usbh_msc_core.o
                                                  STM32_USB_HOST_Library\Class\MSC\usbh_msc_bot.o
MSC_Machine                                       STM32_USB_HOST_Library\Class\MSC\usbh_msc_bot.o
                                                  STM32_USB_HOST_Library\Class\MSC\usbh_msc_core.o
MSC_Setup                                         STM32_USB_HOST_Library\Class\MSC\usbh_msc_core.o
MemManage_Handler                                 User\stm32f4xx_it.o
NMI_Handler                                       User\stm32f4xx_it.o
NVIC_Init                                         STM32F4xx_StdPeriph_Driver\misc.o
                                                  STM32F4-Discovery\stm32f4_discovery.o
                                                  STM32F4-Discovery\stm32f4_discovery_audio_codec.o
                                                  User\main.o
                                                  User\usb_bsp.o
                                                  User\waveplayer.o
                                                  User\waverecorder.o
NVIC_InitStructure                                STM32F4-Discovery\stm32f4_discovery.o
NVIC_PriorityGroupConfig                          STM32F4xx_StdPeriph_Driver\misc.o
                                                  User\main.o
                                                  User\usb_bsp.o
                                                  User\waveplayer.o
                                                  User\waverecorder.o
NVIC_SetVectorTable                               STM32F4xx_StdPeriph_Driver\misc.o
                                                  User\usb_bsp.o
NVIC_SystemLPConfig                               STM32F4xx_StdPeriph_Driver\misc.o
OTG_FS_IRQHandler                                 User\stm32f4xx_it.o
OTG_FS_WKUP_IRQHandler                            TrueSTUDIO\startup_stm32f4xx.o
OTG_HS_EP1_IN_IRQHandler                          TrueSTUDIO\startup_stm32f4xx.o
OTG_HS_EP1_OUT_IRQHandler                         TrueSTUDIO\startup_stm32f4xx.o
OTG_HS_IRQHandler                                 TrueSTUDIO\startup_stm32f4xx.o
OTG_HS_WKUP_IRQHandler                            TrueSTUDIO\startup_stm32f4xx.o
OutputDev                                         STM32F4-Discovery\stm32f4_discovery_audio_codec.o
PDM_Filter_64_LSB                                 ../../../../../Utilities/STM32F4-Discovery\libPDMFilter_GCC.a(pdm_filter.o)
                                                  User\waverecorder.o
PDM_Filter_64_MSB                                 ../../../../../Utilities/STM32F4-Discovery\libPDMFilter_GCC.a(pdm_filter.o)
PDM_Filter_80_LSB                                 ../../../../../Utilities/STM32F4-Discovery\libPDMFilter_GCC.a(pdm_filter.o)
PDM_Filter_80_MSB                                 ../../../../../Utilities/STM32F4-Discovery\libPDMFilter_GCC.a(pdm_filter.o)
PDM_Filter_Init                                   ../../../../../Utilities/STM32F4-Discovery\libPDMFilter_GCC.a(pdm_filter.o)
                                                  User\waverecorder.o
PVD_IRQHandler                                    TrueSTUDIO\startup_stm32f4xx.o
PauseResumeStatus                                 User\stm32f4xx_it.o
                                                  User\waveplayer.o
PendSV_Handler                                    User\stm32f4xx_it.o
RAM_Buf                                           User\waverecorder.o
RAM_Buf1                                          User\waverecorder.o
RCC_AHB1PeriphClockCmd                            STM32F4xx_StdPeriph_Driver\stm32f4xx_rcc.o
                                                  STM32F4-Discovery\stm32f4_discovery.o
                                                  STM32F4-Discovery\stm32f4_discovery_audio_codec.o
                                                  STM32F4-Discovery\stm32f4_discovery_lis302dl.o
                                                  User\usb_bsp.o
                                                  User\waveplayer.o
                                                  User\waverecorder.o
RCC_AHB1PeriphClockLPModeCmd                      STM32F4xx_StdPeriph_Driver\stm32f4xx_rcc.o
RCC_AHB1PeriphResetCmd                            STM32F4xx_StdPeriph_Driver\stm32f4xx_rcc.o
                                                  STM32F4xx_StdPeriph_Driver\stm32f4xx_gpio.o
RCC_AHB2PeriphClockCmd                            STM32F4xx_StdPeriph_Driver\stm32f4xx_rcc.o
                                                  User\usb_bsp.o
RCC_AHB2PeriphClockLPModeCmd                      STM32F4xx_StdPeriph_Driver\stm32f4xx_rcc.o
RCC_AHB2PeriphResetCmd                            STM32F4xx_StdPeriph_Driver\stm32f4xx_rcc.o
RCC_AHB3PeriphClockCmd                            STM32F4xx_StdPeriph_Driver\stm32f4xx_rcc.o
RCC_AHB3PeriphClockLPModeCmd                      STM32F4xx_StdPeriph_Driver\stm32f4xx_rcc.o
RCC_AHB3PeriphResetCmd                            STM32F4xx_StdPeriph_Driver\stm32f4xx_rcc.o
RCC_APB1PeriphClockCmd                            STM32F4xx_StdPeriph_Driver\stm32f4xx_rcc.o
                                                  STM32F4-Discovery\stm32f4_discovery_audio_codec.o
                                                  User\main.o
                                                  User\usb_bsp.o
                                                  User\waverecorder.o
RCC_APB1PeriphClockLPModeCmd                      STM32F4xx_StdPeriph_Driver\stm32f4xx_rcc.o
RCC_APB1PeriphResetCmd                            STM32F4xx_StdPeriph_Driver\stm32f4xx_rcc.o
                                                  STM32F4xx_StdPeriph_Driver\stm32f4xx_dac.o
                                                  STM32F4xx_StdPeriph_Driver\stm32f4xx_i2c.o
                                                  STM32F4xx_StdPeriph_Driver\stm32f4xx_spi.o
                                                  STM32F4xx_StdPeriph_Driver\stm32f4xx_tim.o
RCC_APB2PeriphClockCmd                            STM32F4xx_StdPeriph_Driver\stm32f4xx_rcc.o
                                                  STM32F4-Discovery\stm32f4_discovery.o
                                                  STM32F4-Discovery\stm32f4_discovery_lis302dl.o
                                                  User\usb_bsp.o
                                                  User\waveplayer.o
RCC_APB2PeriphClockLPModeCmd                      STM32F4xx_StdPeriph_Driver\stm32f4xx_rcc.o
RCC_APB2PeriphResetCmd                            STM32F4xx_StdPeriph_Driver\stm32f4xx_rcc.o
                                                  STM32F4xx_StdPeriph_Driver\stm32f4xx_adc.o
                                                  STM32F4xx_StdPeriph_Driver\stm32f4xx_spi.o
                                                  STM32F4xx_StdPeriph_Driver\stm32f4xx_syscfg.o
                                                  STM32F4xx_StdPeriph_Driver\stm32f4xx_tim.o
RCC_AdjustHSICalibrationValue                     STM32F4xx_StdPeriph_Driver\stm32f4xx_rcc.o
RCC_BackupResetCmd                                STM32F4xx_StdPeriph_Driver\stm32f4xx_rcc.o
RCC_ClearFlag                                     STM32F4xx_StdPeriph_Driver\stm32f4xx_rcc.o
RCC_ClearITPendingBit                             STM32F4xx_StdPeriph_Driver\stm32f4xx_rcc.o
RCC_ClockSecuritySystemCmd                        STM32F4xx_StdPeriph_Driver\stm32f4xx_rcc.o
RCC_Clocks                                        User\main.o
RCC_DeInit                                        STM32F4xx_StdPeriph_Driver\stm32f4xx_rcc.o
RCC_GetClocksFreq                                 STM32F4xx_StdPeriph_Driver\stm32f4xx_rcc.o
                                                  STM32F4xx_StdPeriph_Driver\stm32f4xx_i2c.o
                                                  User\main.o
RCC_GetFlagStatus                                 STM32F4xx_StdPeriph_Driver\stm32f4xx_rcc.o
RCC_GetITStatus                                   STM32F4xx_StdPeriph_Driver\stm32f4xx_rcc.o
RCC_GetSYSCLKSource                               STM32F4xx_StdPeriph_Driver\stm32f4xx_rcc.o
RCC_HCLKConfig                                    STM32F4xx_StdPeriph_Driver\stm32f4xx_rcc.o
RCC_HSEConfig                                     STM32F4xx_StdPeriph_Driver\stm32f4xx_rcc.o
RCC_HSICmd                                        STM32F4xx_StdPeriph_Driver\stm32f4xx_rcc.o
RCC_I2SCLKConfig                                  STM32F4xx_StdPeriph_Driver\stm32f4xx_rcc.o
RCC_IRQHandler                                    TrueSTUDIO\startup_stm32f4xx.o
RCC_ITConfig                                      STM32F4xx_StdPeriph_Driver\stm32f4xx_rcc.o
RCC_LSEConfig                                     STM32F4xx_StdPeriph_Driver\stm32f4xx_rcc.o
RCC_LSICmd                                        STM32F4xx_StdPeriph_Driver\stm32f4xx_rcc.o
RCC_MCO1Config                                    STM32F4xx_StdPeriph_Driver\stm32f4xx_rcc.o
RCC_MCO2Config                                    STM32F4xx_StdPeriph_Driver\stm32f4xx_rcc.o
RCC_PCLK1Config                                   STM32F4xx_StdPeriph_Driver\stm32f4xx_rcc.o
RCC_PCLK2Config                                   STM32F4xx_StdPeriph_Driver\stm32f4xx_rcc.o
RCC_PLLCmd                                        STM32F4xx_StdPeriph_Driver\stm32f4xx_rcc.o
RCC_PLLConfig                                     STM32F4xx_StdPeriph_Driver\stm32f4xx_rcc.o
RCC_PLLI2SCmd                                     STM32F4xx_StdPeriph_Driver\stm32f4xx_rcc.o
RCC_PLLI2SConfig                                  STM32F4xx_StdPeriph_Driver\stm32f4xx_rcc.o
RCC_RTCCLKCmd                                     STM32F4xx_StdPeriph_Driver\stm32f4xx_rcc.o
RCC_RTCCLKConfig                                  STM32F4xx_StdPeriph_Driver\stm32f4xx_rcc.o
RCC_SYSCLKConfig                                  STM32F4xx_StdPeriph_Driver\stm32f4xx_rcc.o
RCC_WaitForHSEStartUp                             STM32F4xx_StdPeriph_Driver\stm32f4xx_rcc.o
RTC_Alarm_IRQHandler                              TrueSTUDIO\startup_stm32f4xx.o
RTC_WKUP_IRQHandler                               TrueSTUDIO\startup_stm32f4xx.o
ReadUnit                                          User\waveplayer.o
RecBuf                                            User\waverecorder.o
RecBuf1                                           User\waverecorder.o
RecBufHeader                                      User\waverecorder.o
RepeatState                                       User\main.o
                                                  User\stm32f4xx_it.o
                                                  User\usbh_usr.o
                                                  User\waveplayer.o
Reset_Handler                                     TrueSTUDIO\startup_stm32f4xx.o
SDIO_IRQHandler                                   TrueSTUDIO\startup_stm32f4xx.o
SPI1_IRQHandler                                   TrueSTUDIO\startup_stm32f4xx.o
SPI2_IRQHandler                                   User\waverecorder.o
SPI3_IRQHandler                                   STM32F4-Discovery\stm32f4_discovery_audio_codec.o
                                                  TrueSTUDIO\startup_stm32f4xx.o
SPI_BiDirectionalLineConfig                       STM32F4xx_StdPeriph_Driver\stm32f4xx_spi.o
SPI_CalculateCRC                                  STM32F4xx_StdPeriph_Driver\stm32f4xx_spi.o
SPI_Cmd                                           STM32F4xx_StdPeriph_Driver\stm32f4xx_spi.o
                                                  STM32F4-Discovery\stm32f4_discovery_lis302dl.o
SPI_DataSizeConfig                                STM32F4xx_StdPeriph_Driver\stm32f4xx_spi.o
SPI_GetCRC                                        STM32F4xx_StdPeriph_Driver\stm32f4xx_spi.o
SPI_GetCRCPolynomial                              STM32F4xx_StdPeriph_Driver\stm32f4xx_spi.o
SPI_I2S_ClearFlag                                 STM32F4xx_StdPeriph_Driver\stm32f4xx_spi.o
SPI_I2S_ClearITPendingBit                         STM32F4xx_StdPeriph_Driver\stm32f4xx_spi.o
SPI_I2S_DMACmd                                    STM32F4xx_StdPeriph_Driver\stm32f4xx_spi.o
                                                  STM32F4-Discovery\stm32f4_discovery_audio_codec.o
SPI_I2S_DeInit                                    STM32F4xx_StdPeriph_Driver\stm32f4xx_spi.o
                                                  STM32F4-Discovery\stm32f4_discovery_audio_codec.o
                                                  STM32F4-Discovery\stm32f4_discovery_lis302dl.o
                                                  User\waverecorder.o
SPI_I2S_GetFlagStatus                             STM32F4xx_StdPeriph_Driver\stm32f4xx_spi.o
                                                  STM32F4-Discovery\stm32f4_discovery_audio_codec.o
                                                  STM32F4-Discovery\stm32f4_discovery_lis302dl.o
SPI_I2S_GetITStatus                               STM32F4xx_StdPeriph_Driver\stm32f4xx_spi.o
                                                  User\waverecorder.o
SPI_I2S_ITConfig                                  STM32F4xx_StdPeriph_Driver\stm32f4xx_spi.o
                                                  STM32F4-Discovery\stm32f4_discovery_audio_codec.o
                                                  User\waverecorder.o
SPI_I2S_ReceiveData                               STM32F4xx_StdPeriph_Driver\stm32f4xx_spi.o
                                                  STM32F4-Discovery\stm32f4_discovery_lis302dl.o
                                                  User\waverecorder.o
SPI_I2S_SendData                                  STM32F4xx_StdPeriph_Driver\stm32f4xx_spi.o
                                                  STM32F4-Discovery\stm32f4_discovery_audio_codec.o
                                                  STM32F4-Discovery\stm32f4_discovery_lis302dl.o
SPI_Init                                          STM32F4xx_StdPeriph_Driver\stm32f4xx_spi.o
                                                  STM32F4-Discovery\stm32f4_discovery_lis302dl.o
SPI_NSSInternalSoftwareConfig                     STM32F4xx_StdPeriph_Driver\stm32f4xx_spi.o
SPI_SSOutputCmd                                   STM32F4xx_StdPeriph_Driver\stm32f4xx_spi.o
SPI_StructInit                                    STM32F4xx_StdPeriph_Driver\stm32f4xx_spi.o
SPI_TIModeCmd                                     STM32F4xx_StdPeriph_Driver\stm32f4xx_spi.o
SPI_TransmitCRC                                   STM32F4xx_StdPeriph_Driver\stm32f4xx_spi.o
STM_EVAL_LEDInit                                  STM32F4-Discovery\stm32f4_discovery.o
                                                  User\main.o
STM_EVAL_LEDOff                                   STM32F4-Discovery\stm32f4_discovery.o
                                                  User\stm32f4xx_it.o
                                                  User\usbh_usr.o
                                                  User\waveplayer.o
STM_EVAL_LEDOn                                    STM32F4-Discovery\stm32f4_discovery.o
                                                  User\main.o
                                                  User\stm32f4xx_it.o
                                                  User\usbh_usr.o
                                                  User\waveplayer.o
STM_EVAL_LEDToggle                                STM32F4-Discovery\stm32f4_discovery.o
                                                  User\stm32f4xx_it.o
                                                  User\waveplayer.o
                                                  User\waverecorder.o
STM_EVAL_PBGetState                               STM32F4-Discovery\stm32f4_discovery.o
STM_EVAL_PBInit                                   STM32F4-Discovery\stm32f4_discovery.o
                                                  User\main.o
                                                  User\usb_bsp.o
SVC_Handler                                       User\stm32f4xx_it.o
SYSCFG_CompensationCellCmd                        STM32F4xx_StdPeriph_Driver\stm32f4xx_syscfg.o
SYSCFG_DeInit                                     STM32F4xx_StdPeriph_Driver\stm32f4xx_syscfg.o
SYSCFG_ETH_MediaInterfaceConfig                   STM32F4xx_StdPeriph_Driver\stm32f4xx_syscfg.o
SYSCFG_EXTILineConfig                             STM32F4xx_StdPeriph_Driver\stm32f4xx_syscfg.o
                                                  STM32F4-Discovery\stm32f4_discovery.o
                                                  User\waveplayer.o
SYSCFG_GetCompensationCellStatus                  STM32F4xx_StdPeriph_Driver\stm32f4xx_syscfg.o
SYSCFG_MemoryRemapConfig                          STM32F4xx_StdPeriph_Driver\stm32f4xx_syscfg.o
Switch                                            User\waverecorder.o
SysTick_CLKSourceConfig                           STM32F4xx_StdPeriph_Driver\misc.o
SysTick_Handler                                   User\stm32f4xx_it.o
SystemCoreClock                                   User\system_stm32f4xx.o
                                                  User\main.o
SystemCoreClockUpdate                             User\system_stm32f4xx.o
SystemInit                                        User\system_stm32f4xx.o
                                                  TrueSTUDIO\startup_stm32f4xx.o
T0                                                ../../../../../Utilities/STM32F4-Discovery\libPDMFilter_GCC.a(pdm_filter.o)
T1                                                ../../../../../Utilities/STM32F4-Discovery\libPDMFilter_GCC.a(pdm_filter.o)
T2                                                ../../../../../Utilities/STM32F4-Discovery\libPDMFilter_GCC.a(pdm_filter.o)
TAMP_STAMP_IRQHandler                             TrueSTUDIO\startup_stm32f4xx.o
TIM1_BRK_TIM9_IRQHandler                          TrueSTUDIO\startup_stm32f4xx.o
TIM1_CC_IRQHandler                                TrueSTUDIO\startup_stm32f4xx.o
TIM1_TRG_COM_TIM11_IRQHandler                     TrueSTUDIO\startup_stm32f4xx.o
TIM1_UP_TIM10_IRQHandler                          TrueSTUDIO\startup_stm32f4xx.o
TIM2_IRQHandler                                   User\stm32f4xx_it.o
TIM3_IRQHandler                                   TrueSTUDIO\startup_stm32f4xx.o
TIM4_IRQHandler                                   User\stm32f4xx_it.o
TIM5_IRQHandler                                   TrueSTUDIO\startup_stm32f4xx.o
TIM6_DAC_IRQHandler                               TrueSTUDIO\startup_stm32f4xx.o
TIM7_IRQHandler                                   TrueSTUDIO\startup_stm32f4xx.o
TIM8_BRK_TIM12_IRQHandler                         TrueSTUDIO\startup_stm32f4xx.o
TIM8_CC_IRQHandler                                TrueSTUDIO\startup_stm32f4xx.o
TIM8_TRG_COM_TIM14_IRQHandler                     TrueSTUDIO\startup_stm32f4xx.o
TIM8_UP_TIM13_IRQHandler                          TrueSTUDIO\startup_stm32f4xx.o
TIM_ARRPreloadConfig                              STM32F4xx_StdPeriph_Driver\stm32f4xx_tim.o
                                                  User\main.o
                                                  User\usb_bsp.o
TIM_BDTRConfig                                    STM32F4xx_StdPeriph_Driver\stm32f4xx_tim.o
TIM_BDTRStructInit                                STM32F4xx_StdPeriph_Driver\stm32f4xx_tim.o
TIM_CCPreloadControl                              STM32F4xx_StdPeriph_Driver\stm32f4xx_tim.o
TIM_CCxCmd                                        STM32F4xx_StdPeriph_Driver\stm32f4xx_tim.o
TIM_CCxNCmd                                       STM32F4xx_StdPeriph_Driver\stm32f4xx_tim.o
TIM_ClearFlag                                     STM32F4xx_StdPeriph_Driver\stm32f4xx_tim.o
TIM_ClearITPendingBit                             STM32F4xx_StdPeriph_Driver\stm32f4xx_tim.o
                                                  User\stm32f4xx_it.o
                                                  User\usb_bsp.o
TIM_ClearOC1Ref                                   STM32F4xx_StdPeriph_Driver\stm32f4xx_tim.o
TIM_ClearOC2Ref                                   STM32F4xx_StdPeriph_Driver\stm32f4xx_tim.o
TIM_ClearOC3Ref                                   STM32F4xx_StdPeriph_Driver\stm32f4xx_tim.o
TIM_ClearOC4Ref                                   STM32F4xx_StdPeriph_Driver\stm32f4xx_tim.o
TIM_Cmd                                           STM32F4xx_StdPeriph_Driver\stm32f4xx_tim.o
                                                  User\main.o
                                                  User\usb_bsp.o
TIM_CounterModeConfig                             STM32F4xx_StdPeriph_Driver\stm32f4xx_tim.o
TIM_CtrlPWMOutputs                                STM32F4xx_StdPeriph_Driver\stm32f4xx_tim.o
TIM_DMACmd                                        STM32F4xx_StdPeriph_Driver\stm32f4xx_tim.o
TIM_DMAConfig                                     STM32F4xx_StdPeriph_Driver\stm32f4xx_tim.o
TIM_DeInit                                        STM32F4xx_StdPeriph_Driver\stm32f4xx_tim.o
TIM_ETRClockMode1Config                           STM32F4xx_StdPeriph_Driver\stm32f4xx_tim.o
TIM_ETRClockMode2Config                           STM32F4xx_StdPeriph_Driver\stm32f4xx_tim.o
TIM_ETRConfig                                     STM32F4xx_StdPeriph_Driver\stm32f4xx_tim.o
TIM_EncoderInterfaceConfig                        STM32F4xx_StdPeriph_Driver\stm32f4xx_tim.o
TIM_ForcedOC1Config                               STM32F4xx_StdPeriph_Driver\stm32f4xx_tim.o
TIM_ForcedOC2Config                               STM32F4xx_StdPeriph_Driver\stm32f4xx_tim.o
TIM_ForcedOC3Config                               STM32F4xx_StdPeriph_Driver\stm32f4xx_tim.o
TIM_ForcedOC4Config                               STM32F4xx_StdPeriph_Driver\stm32f4xx_tim.o
TIM_GenerateEvent                                 STM32F4xx_StdPeriph_Driver\stm32f4xx_tim.o
TIM_GetCapture1                                   STM32F4xx_StdPeriph_Driver\stm32f4xx_tim.o
                                                  User\stm32f4xx_it.o
TIM_GetCapture2                                   STM32F4xx_StdPeriph_Driver\stm32f4xx_tim.o
TIM_GetCapture3                                   STM32F4xx_StdPeriph_Driver\stm32f4xx_tim.o
TIM_GetCapture4                                   STM32F4xx_StdPeriph_Driver\stm32f4xx_tim.o
TIM_GetCounter                                    STM32F4xx_StdPeriph_Driver\stm32f4xx_tim.o
TIM_GetFlagStatus                                 STM32F4xx_StdPeriph_Driver\stm32f4xx_tim.o
TIM_GetITStatus                                   STM32F4xx_StdPeriph_Driver\stm32f4xx_tim.o
                                                  User\stm32f4xx_it.o
                                                  User\usb_bsp.o
TIM_GetPrescaler                                  STM32F4xx_StdPeriph_Driver\stm32f4xx_tim.o
TIM_ICInit                                        STM32F4xx_StdPeriph_Driver\stm32f4xx_tim.o
TIM_ICStructInit                                  STM32F4xx_StdPeriph_Driver\stm32f4xx_tim.o
TIM_ITConfig                                      STM32F4xx_StdPeriph_Driver\stm32f4xx_tim.o
                                                  User\main.o
                                                  User\usb_bsp.o
                                                  User\usbh_usr.o
                                                  User\waveplayer.o
TIM_ITRxExternalClockConfig                       STM32F4xx_StdPeriph_Driver\stm32f4xx_tim.o
TIM_InternalClockConfig                           STM32F4xx_StdPeriph_Driver\stm32f4xx_tim.o
TIM_OC1FastConfig                                 STM32F4xx_StdPeriph_Driver\stm32f4xx_tim.o
TIM_OC1Init                                       STM32F4xx_StdPeriph_Driver\stm32f4xx_tim.o
                                                  User\main.o
TIM_OC1NPolarityConfig                            STM32F4xx_StdPeriph_Driver\stm32f4xx_tim.o
TIM_OC1PolarityConfig                             STM32F4xx_StdPeriph_Driver\stm32f4xx_tim.o
TIM_OC1PreloadConfig                              STM32F4xx_StdPeriph_Driver\stm32f4xx_tim.o
                                                  User\main.o
TIM_OC2FastConfig                                 STM32F4xx_StdPeriph_Driver\stm32f4xx_tim.o
TIM_OC2Init                                       STM32F4xx_StdPeriph_Driver\stm32f4xx_tim.o
TIM_OC2NPolarityConfig                            STM32F4xx_StdPeriph_Driver\stm32f4xx_tim.o
TIM_OC2PolarityConfig                             STM32F4xx_StdPeriph_Driver\stm32f4xx_tim.o
TIM_OC2PreloadConfig                              STM32F4xx_StdPeriph_Driver\stm32f4xx_tim.o
TIM_OC3FastConfig                                 STM32F4xx_StdPeriph_Driver\stm32f4xx_tim.o
TIM_OC3Init                                       STM32F4xx_StdPeriph_Driver\stm32f4xx_tim.o
TIM_OC3NPolarityConfig                            STM32F4xx_StdPeriph_Driver\stm32f4xx_tim.o
TIM_OC3PolarityConfig                             STM32F4xx_StdPeriph_Driver\stm32f4xx_tim.o
TIM_OC3PreloadConfig                              STM32F4xx_StdPeriph_Driver\stm32f4xx_tim.o
TIM_OC4FastConfig                                 STM32F4xx_StdPeriph_Driver\stm32f4xx_tim.o
TIM_OC4Init                                       STM32F4xx_StdPeriph_Driver\stm32f4xx_tim.o
TIM_OC4PolarityConfig                             STM32F4xx_StdPeriph_Driver\stm32f4xx_tim.o
TIM_OC4PreloadConfig                              STM32F4xx_StdPeriph_Driver\stm32f4xx_tim.o
TIM_OCStructInit                                  STM32F4xx_StdPeriph_Driver\stm32f4xx_tim.o
TIM_PWMIConfig                                    STM32F4xx_StdPeriph_Driver\stm32f4xx_tim.o
TIM_PrescalerConfig                               STM32F4xx_StdPeriph_Driver\stm32f4xx_tim.o
TIM_RemapConfig                                   STM32F4xx_StdPeriph_Driver\stm32f4xx_tim.o
TIM_SelectCCDMA                                   STM32F4xx_StdPeriph_Driver\stm32f4xx_tim.o
TIM_SelectCOM                                     STM32F4xx_StdPeriph_Driver\stm32f4xx_tim.o
TIM_SelectHallSensor                              STM32F4xx_StdPeriph_Driver\stm32f4xx_tim.o
TIM_SelectInputTrigger                            STM32F4xx_StdPeriph_Driver\stm32f4xx_tim.o
TIM_SelectMasterSlaveMode                         STM32F4xx_StdPeriph_Driver\stm32f4xx_tim.o
TIM_SelectOCxM                                    STM32F4xx_StdPeriph_Driver\stm32f4xx_tim.o
TIM_SelectOnePulseMode                            STM32F4xx_StdPeriph_Driver\stm32f4xx_tim.o
TIM_SelectOutputTrigger                           STM32F4xx_StdPeriph_Driver\stm32f4xx_tim.o
TIM_SelectSlaveMode                               STM32F4xx_StdPeriph_Driver\stm32f4xx_tim.o
TIM_SetAutoreload                                 STM32F4xx_StdPeriph_Driver\stm32f4xx_tim.o
TIM_SetClockDivision                              STM32F4xx_StdPeriph_Driver\stm32f4xx_tim.o
TIM_SetCompare1                                   STM32F4xx_StdPeriph_Driver\stm32f4xx_tim.o
                                                  User\stm32f4xx_it.o
TIM_SetCompare2                                   STM32F4xx_StdPeriph_Driver\stm32f4xx_tim.o
TIM_SetCompare3                                   STM32F4xx_StdPeriph_Driver\stm32f4xx_tim.o
TIM_SetCompare4                                   STM32F4xx_StdPeriph_Driver\stm32f4xx_tim.o
TIM_SetCounter                                    STM32F4xx_StdPeriph_Driver\stm32f4xx_tim.o
TIM_SetIC1Prescaler                               STM32F4xx_StdPeriph_Driver\stm32f4xx_tim.o
TIM_SetIC2Prescaler                               STM32F4xx_StdPeriph_Driver\stm32f4xx_tim.o
TIM_SetIC3Prescaler                               STM32F4xx_StdPeriph_Driver\stm32f4xx_tim.o
TIM_SetIC4Prescaler                               STM32F4xx_StdPeriph_Driver\stm32f4xx_tim.o
TIM_TIxExternalClockConfig                        STM32F4xx_StdPeriph_Driver\stm32f4xx_tim.o
TIM_TimeBaseInit                                  STM32F4xx_StdPeriph_Driver\stm32f4xx_tim.o
                                                  User\main.o
                                                  User\usb_bsp.o
TIM_TimeBaseStructInit                            STM32F4xx_StdPeriph_Driver\stm32f4xx_tim.o
TIM_UpdateDisableConfig                           STM32F4xx_StdPeriph_Driver\stm32f4xx_tim.o
TIM_UpdateRequestConfig                           STM32F4xx_StdPeriph_Driver\stm32f4xx_tim.o
Time_Rec_Base                                     User\stm32f4xx_it.o
                                                  User\usbh_usr.o
                                                  User\waverecorder.o
TimingDelay_Decrement                             User\waveplayer.o
                                                  User\stm32f4xx_it.o
UART4_IRQHandler                                  TrueSTUDIO\startup_stm32f4xx.o
UART5_IRQHandler                                  TrueSTUDIO\startup_stm32f4xx.o
USART1_IRQHandler                                 TrueSTUDIO\startup_stm32f4xx.o
USART2_IRQHandler                                 TrueSTUDIO\startup_stm32f4xx.o
USART3_IRQHandler                                 TrueSTUDIO\startup_stm32f4xx.o
USART6_IRQHandler                                 TrueSTUDIO\startup_stm32f4xx.o
USBH_Alloc_Channel                                STM32_USB_HOST_Library\Core\usbh_hcs.o
                                                  STM32_USB_HOST_Library\Class\MSC\usbh_msc_core.o
                                                  STM32_USB_HOST_Library\Core\usbh_core.o
USBH_BulkReceiveData                              STM32_USB_HOST_Library\Core\usbh_ioreq.o
                                                  STM32_USB_HOST_Library\Class\MSC\usbh_msc_bot.o
USBH_BulkSendData                                 STM32_USB_HOST_Library\Core\usbh_ioreq.o
                                                  STM32_USB_HOST_Library\Class\MSC\usbh_msc_bot.o
USBH_ClrFeature                                   STM32_USB_HOST_Library\Core\usbh_stdreq.o
                                                  STM32_USB_HOST_Library\Class\MSC\usbh_msc_bot.o
                                                  STM32_USB_HOST_Library\Class\MSC\usbh_msc_core.o
USBH_Connect                                      STM32_USB_HOST_Library\Core\usbh_core.o
USBH_CtlReceiveData                               STM32_USB_HOST_Library\Core\usbh_ioreq.o
                                                  STM32_USB_HOST_Library\Core\usbh_core.o
USBH_CtlReq                                       STM32_USB_HOST_Library\Core\usbh_ioreq.o
                                                  STM32_USB_HOST_Library\Class\MSC\usbh_msc_core.o
                                                  STM32_USB_HOST_Library\Core\usbh_stdreq.o
USBH_CtlSendData                                  STM32_USB_HOST_Library\Core\usbh_ioreq.o
                                                  STM32_USB_HOST_Library\Core\usbh_core.o
USBH_CtlSendSetup                                 STM32_USB_HOST_Library\Core\usbh_ioreq.o
                                                  STM32_USB_HOST_Library\Core\usbh_core.o
USBH_DataInBuffer                                 STM32_USB_HOST_Library\Class\MSC\usbh_msc_scsi.o
USBH_DataOutBuffer                                STM32_USB_HOST_Library\Class\MSC\usbh_msc_scsi.o
USBH_DeAllocate_AllChannel                        STM32_USB_HOST_Library\Core\usbh_hcs.o
                                                  STM32_USB_HOST_Library\Core\usbh_core.o
USBH_DeInit                                       STM32_USB_HOST_Library\Core\usbh_core.o
USBH_DeviceConnStatus_cb                          STM32_USB_HOST_Library\Core\usbh_core.o
USBH_Disconnect                                   STM32_USB_HOST_Library\Core\usbh_core.o
USBH_ErrorHandle                                  STM32_USB_HOST_Library\Core\usbh_core.o
USBH_Free_Channel                                 STM32_USB_HOST_Library\Core\usbh_hcs.o
                                                  STM32_USB_HOST_Library\Class\MSC\usbh_msc_core.o
                                                  STM32_USB_HOST_Library\Core\usbh_core.o
USBH_GetDescriptor                                STM32_USB_HOST_Library\Core\usbh_stdreq.o
USBH_Get_CfgDesc                                  STM32_USB_HOST_Library\Core\usbh_stdreq.o
                                                  STM32_USB_HOST_Library\Core\usbh_core.o
USBH_Get_DevDesc                                  STM32_USB_HOST_Library\Core\usbh_stdreq.o
                                                  STM32_USB_HOST_Library\Core\usbh_core.o
USBH_Get_StringDesc                               STM32_USB_HOST_Library\Core\usbh_stdreq.o
                                                  STM32_USB_HOST_Library\Core\usbh_core.o
USBH_HandleControl                                STM32_USB_HOST_Library\Core\usbh_core.o
USBH_Init                                         STM32_USB_HOST_Library\Core\usbh_core.o
                                                  User\main.o
USBH_InterruptReceiveData                         STM32_USB_HOST_Library\Core\usbh_ioreq.o
USBH_InterruptSendData                            STM32_USB_HOST_Library\Core\usbh_ioreq.o
USBH_MSC_BOTXferParam                             STM32_USB_HOST_Library\Class\MSC\usbh_msc_bot.o
                                                  STM32_USB_HOST_Library\Class\MSC\usbh_msc_core.o
                                                  STM32_USB_HOST_Library\Class\MSC\usbh_msc_scsi.o
USBH_MSC_BOT_Abort                                STM32_USB_HOST_Library\Class\MSC\usbh_msc_bot.o
USBH_MSC_CBWData                                  STM32_USB_HOST_Library\Class\MSC\usbh_msc_bot.o
                                                  STM32_USB_HOST_Library\Class\MSC\usbh_msc_scsi.o
USBH_MSC_CSWData                                  STM32_USB_HOST_Library\Class\MSC\usbh_msc_bot.o
                                                  STM32_USB_HOST_Library\Class\MSC\usbh_msc_scsi.o
USBH_MSC_DecodeCSW                                STM32_USB_HOST_Library\Class\MSC\usbh_msc_bot.o
USBH_MSC_ErrorHandle                              STM32_USB_HOST_Library\Class\MSC\usbh_msc_core.o
USBH_MSC_HandleBOTXfer                            STM32_USB_HOST_Library\Class\MSC\usbh_msc_bot.o
                                                  STM32_USB_HOST_Library\Class\MSC\usbh_msc_core.o
                                                  STM32_USB_HOST_Library\Class\MSC\usbh_msc_fatfs.o
USBH_MSC_Init                                     STM32_USB_HOST_Library\Class\MSC\usbh_msc_bot.o
                                                  STM32_USB_HOST_Library\Class\MSC\usbh_msc_core.o
USBH_MSC_ModeSense6                               STM32_USB_HOST_Library\Class\MSC\usbh_msc_scsi.o
                                                  STM32_USB_HOST_Library\Class\MSC\usbh_msc_core.o
USBH_MSC_Param                                    STM32_USB_HOST_Library\Class\MSC\usbh_msc_fatfs.o
                                                  STM32_USB_HOST_Library\Class\MSC\usbh_msc_scsi.o
                                                  User\usbh_usr.o
USBH_MSC_Read10                                   STM32_USB_HOST_Library\Class\MSC\usbh_msc_scsi.o
                                                  STM32_USB_HOST_Library\Class\MSC\usbh_msc_fatfs.o
USBH_MSC_ReadCapacity10                           STM32_USB_HOST_Library\Class\MSC\usbh_msc_scsi.o
                                                  STM32_USB_HOST_Library\Class\MSC\usbh_msc_core.o
USBH_MSC_RequestSense                             STM32_USB_HOST_Library\Class\MSC\usbh_msc_scsi.o
                                                  STM32_USB_HOST_Library\Class\MSC\usbh_msc_core.o
USBH_MSC_TestUnitReady                            STM32_USB_HOST_Library\Class\MSC\usbh_msc_scsi.o
                                                  STM32_USB_HOST_Library\Class\MSC\usbh_msc_core.o
USBH_MSC_Write10                                  STM32_USB_HOST_Library\Class\MSC\usbh_msc_scsi.o
                                                  STM32_USB_HOST_Library\Class\MSC\usbh_msc_fatfs.o
USBH_MSC_cb                                       STM32_USB_HOST_Library\Class\MSC\usbh_msc_core.o
                                                  User\main.o
USBH_Modify_Channel                               STM32_USB_HOST_Library\Core\usbh_hcs.o
                                                  STM32_USB_HOST_Library\Core\usbh_core.o
USBH_OTG_ISR_Handler                              STM32_USB_OTG_Driver\usb_hcd_int.o
                                                  User\stm32f4xx_it.o
USBH_Open_Channel                                 STM32_USB_HOST_Library\Core\usbh_hcs.o
                                                  STM32_USB_HOST_Library\Class\MSC\usbh_msc_core.o
                                                  STM32_USB_HOST_Library\Core\usbh_core.o
USBH_Process                                      STM32_USB_HOST_Library\Core\usbh_core.o
                                                  User\main.o
USBH_SetAddress                                   STM32_USB_HOST_Library\Core\usbh_stdreq.o
                                                  STM32_USB_HOST_Library\Core\usbh_core.o
USBH_SetCfg                                       STM32_USB_HOST_Library\Core\usbh_stdreq.o
                                                  STM32_USB_HOST_Library\Core\usbh_core.o
USBH_USR_Configuration_DescAvailable              User\usbh_usr.o
USBH_USR_DeInit                                   User\usbh_usr.o
USBH_USR_DeviceAddressAssigned                    User\usbh_usr.o
USBH_USR_DeviceAttached                           User\usbh_usr.o
USBH_USR_DeviceDisconnected                       User\usbh_usr.o
USBH_USR_DeviceNotSupported                       User\usbh_usr.o
USBH_USR_DeviceSpeedDetected                      User\usbh_usr.o
USBH_USR_Device_DescAvailable                     User\usbh_usr.o
USBH_USR_EnumerationDone                          User\usbh_usr.o
USBH_USR_Init                                     User\usbh_usr.o
USBH_USR_MSC_Application                          User\usbh_usr.o
USBH_USR_Manufacturer_String                      User\usbh_usr.o
USBH_USR_OverCurrentDetected                      User\usbh_usr.o
USBH_USR_Product_String                           User\usbh_usr.o
USBH_USR_ResetDevice                              User\usbh_usr.o
USBH_USR_SerialNum_String                         User\usbh_usr.o
USBH_USR_UnrecoveredError                         User\usbh_usr.o
USBH_USR_UserInput                                User\usbh_usr.o
USB_Host                                          STM32_USB_HOST_Library\Class\MSC\usbh_msc_fatfs.o
                                                  User\main.o
USB_OTG_BSP_ConfigVBUS                            User\usb_bsp.o
                                                  STM32_USB_HOST_Library\Core\usbh_core.o
                                                  STM32_USB_OTG_Driver\usb_core.o
USB_OTG_BSP_DriveVBUS                             User\usb_bsp.o
                                                  STM32_USB_OTG_Driver\usb_core.o
USB_OTG_BSP_EnableInterrupt                       User\usb_bsp.o
                                                  STM32_USB_HOST_Library\Core\usbh_core.o
USB_OTG_BSP_Init                                  User\usb_bsp.o
                                                  STM32_USB_HOST_Library\Core\usbh_core.o
USB_OTG_BSP_TimerIRQ                              User\usb_bsp.o
                                                  User\stm32f4xx_it.o
USB_OTG_BSP_mDelay                                User\usb_bsp.o
                                                  STM32_USB_OTG_Driver\usb_core.o
                                                  User\usbh_usr.o
USB_OTG_BSP_uDelay                                User\usb_bsp.o
                                                  STM32_USB_OTG_Driver\usb_core.o
USB_OTG_Core                                      STM32_USB_HOST_Library\Class\MSC\usbh_msc_fatfs.o
                                                  User\main.o
                                                  User\stm32f4xx_it.o
                                                  User\waveplayer.o
                                                  User\waverecorder.o
USB_OTG_CoreInit                                  STM32_USB_OTG_Driver\usb_core.o
                                                  STM32_USB_OTG_Driver\usb_hcd.o
USB_OTG_CoreInitHost                              STM32_USB_OTG_Driver\usb_core.o
                                                  STM32_USB_OTG_Driver\usb_hcd.o
USB_OTG_DisableGlobalInt                          STM32_USB_OTG_Driver\usb_core.o
                                                  STM32_USB_OTG_Driver\usb_hcd.o
USB_OTG_DriveVbus                                 STM32_USB_OTG_Driver\usb_core.o
USB_OTG_EnableGlobalInt                           STM32_USB_OTG_Driver\usb_core.o
                                                  STM32_USB_OTG_Driver\usb_hcd.o
USB_OTG_EnableHostInt                             STM32_USB_OTG_Driver\usb_core.o
USB_OTG_FlushRxFifo                               STM32_USB_OTG_Driver\usb_core.o
USB_OTG_FlushTxFifo                               STM32_USB_OTG_Driver\usb_core.o
USB_OTG_GetMode                                   STM32_USB_OTG_Driver\usb_core.o
USB_OTG_HC_DoPing                                 STM32_USB_OTG_Driver\usb_core.o
                                                  STM32_USB_OTG_Driver\usb_hcd_int.o
USB_OTG_HC_Halt                                   STM32_USB_OTG_Driver\usb_core.o
                                                  STM32_USB_HOST_Library\Class\MSC\usbh_msc_core.o
                                                  STM32_USB_OTG_Driver\usb_hcd_int.o
USB_OTG_HC_Init                                   STM32_USB_OTG_Driver\usb_core.o
                                                  STM32_USB_HOST_Library\Core\usbh_hcs.o
                                                  STM32_USB_OTG_Driver\usb_hcd.o
USB_OTG_HC_StartXfer                              STM32_USB_OTG_Driver\usb_core.o
                                                  STM32_USB_OTG_Driver\usb_hcd.o
USB_OTG_InitFSLSPClkSel                           STM32_USB_OTG_Driver\usb_core.o
                                                  STM32_USB_OTG_Driver\usb_hcd_int.o
USB_OTG_IsDeviceMode                              STM32_USB_OTG_Driver\usb_core.o
USB_OTG_IsEvenFrame                               STM32_USB_OTG_Driver\usb_core.o
USB_OTG_IsHostMode                                STM32_USB_OTG_Driver\usb_core.o
                                                  STM32_USB_OTG_Driver\usb_hcd_int.o
USB_OTG_ReadCoreItr                               STM32_USB_OTG_Driver\usb_core.o
                                                  STM32_USB_OTG_Driver\usb_hcd_int.o
USB_OTG_ReadHPRT0                                 STM32_USB_OTG_Driver\usb_core.o
USB_OTG_ReadHostAllChannels_intr                  STM32_USB_OTG_Driver\usb_core.o
                                                  STM32_USB_OTG_Driver\usb_hcd_int.o
USB_OTG_ReadOtgItr                                STM32_USB_OTG_Driver\usb_core.o
USB_OTG_ReadPacket                                STM32_USB_OTG_Driver\usb_core.o
                                                  STM32_USB_OTG_Driver\usb_hcd_int.o
USB_OTG_ResetPort                                 STM32_USB_OTG_Driver\usb_core.o
                                                  STM32_USB_OTG_Driver\usb_hcd.o
                                                  STM32_USB_OTG_Driver\usb_hcd_int.o
USB_OTG_SelectCore                                STM32_USB_OTG_Driver\usb_core.o
                                                  STM32_USB_OTG_Driver\usb_hcd.o
USB_OTG_SetCurrentMode                            STM32_USB_OTG_Driver\usb_core.o
                                                  STM32_USB_OTG_Driver\usb_hcd.o
USB_OTG_StopHost                                  STM32_USB_OTG_Driver\usb_core.o
USB_OTG_WritePacket                               STM32_USB_OTG_Driver\usb_core.o
                                                  STM32_USB_OTG_Driver\usb_hcd_int.o
USR_Callbacks                                     User\usbh_usr.o
                                                  User\main.o
UsageFault_Handler                                User\stm32f4xx_it.o
WAVE_Format                                       User\waveplayer.o
WWDG_IRQHandler                                   TrueSTUDIO\startup_stm32f4xx.o
WavaRecorderHeaderInit                            User\waverecorder.o
WaveCounter                                       User\waveplayer.o
                                                  User\waverecorder.o
WaveDataLength                                    User\waveplayer.o
                                                  User\usbh_usr.o
WaveFileStatus                                    User\waveplayer.o
WavePlayBack                                      User\waveplayer.o
WavePlayerInit                                    User\waveplayer.o
WavePlayerPauseResume                             User\waveplayer.o
WavePlayerStart                                   User\waveplayer.o
                                                  User\usbh_usr.o
WavePlayerStop                                    User\waveplayer.o
WavePlayer_CallBack                               User\waveplayer.o
                                                  User\usbh_usr.o
WaveRecStatus                                     User\waverecorder.o
                                                  User\waveplayer.o
WaveRecorderInit                                  User\waverecorder.o
WaveRecorderStart                                 User\waverecorder.o
WaveRecorderStop                                  User\waverecorder.o
                                                  User\usbh_usr.o
WaveRecorderUpdate                                User\waverecorder.o
                                                  User\usbh_usr.o
WaveplayerCtrlVolume                              User\waveplayer.o
XferCplt                                          User\waveplayer.o
                                                  User\stm32f4xx_it.o
_Jv_RegisterClasses                               c:/program files/atollic/truestudio for stmicroelectronics stm32 lite 2.2.0/armtools/bin/../lib/gcc/arm-atollic-eabi/4.5.1/thumb/thumb2/crtbegin.o
__adddf3                                          c:/program files/atollic/truestudio for stmicroelectronics stm32 lite 2.2.0/armtools/bin/../lib/gcc/arm-atollic-eabi/4.5.1/thumb/thumb2\libgcc.a(_arm_addsubdf3.o)
__aeabi_cfcmpeq                                   c:/program files/atollic/truestudio for stmicroelectronics stm32 lite 2.2.0/armtools/bin/../lib/gcc/arm-atollic-eabi/4.5.1/thumb/thumb2\libgcc.a(_arm_cmpsf2.o)
__aeabi_cfcmple                                   c:/program files/atollic/truestudio for stmicroelectronics stm32 lite 2.2.0/armtools/bin/../lib/gcc/arm-atollic-eabi/4.5.1/thumb/thumb2\libgcc.a(_arm_cmpsf2.o)
__aeabi_cfrcmple                                  c:/program files/atollic/truestudio for stmicroelectronics stm32 lite 2.2.0/armtools/bin/../lib/gcc/arm-atollic-eabi/4.5.1/thumb/thumb2\libgcc.a(_arm_cmpsf2.o)
__aeabi_d2uiz                                     c:/program files/atollic/truestudio for stmicroelectronics stm32 lite 2.2.0/armtools/bin/../lib/gcc/arm-atollic-eabi/4.5.1/thumb/thumb2\libgcc.a(_arm_fixunsdfsi.o)
                                                  ../../../../../Utilities/STM32F4-Discovery\libPDMFilter_GCC.a(pdm_filter.o)
__aeabi_dadd                                      c:/program files/atollic/truestudio for stmicroelectronics stm32 lite 2.2.0/armtools/bin/../lib/gcc/arm-atollic-eabi/4.5.1/thumb/thumb2\libgcc.a(_arm_addsubdf3.o)
                                                  ../../../../../Utilities/STM32F4-Discovery\libPDMFilter_GCC.a(pdm_filter.o)
__aeabi_ddiv                                      c:/program files/atollic/truestudio for stmicroelectronics stm32 lite 2.2.0/armtools/bin/../lib/gcc/arm-atollic-eabi/4.5.1/thumb/thumb2\libgcc.a(_arm_muldivdf3.o)
                                                  ../../../../../Utilities/STM32F4-Discovery\libPDMFilter_GCC.a(pdm_filter.o)
__aeabi_dmul                                      c:/program files/atollic/truestudio for stmicroelectronics stm32 lite 2.2.0/armtools/bin/../lib/gcc/arm-atollic-eabi/4.5.1/thumb/thumb2\libgcc.a(_arm_muldivdf3.o)
                                                  ../../../../../Utilities/STM32F4-Discovery\libPDMFilter_GCC.a(pdm_filter.o)
__aeabi_drsub                                     c:/program files/atollic/truestudio for stmicroelectronics stm32 lite 2.2.0/armtools/bin/../lib/gcc/arm-atollic-eabi/4.5.1/thumb/thumb2\libgcc.a(_arm_addsubdf3.o)
__aeabi_dsub                                      c:/program files/atollic/truestudio for stmicroelectronics stm32 lite 2.2.0/armtools/bin/../lib/gcc/arm-atollic-eabi/4.5.1/thumb/thumb2\libgcc.a(_arm_addsubdf3.o)
__aeabi_f2d                                       c:/program files/atollic/truestudio for stmicroelectronics stm32 lite 2.2.0/armtools/bin/../lib/gcc/arm-atollic-eabi/4.5.1/thumb/thumb2\libgcc.a(_arm_addsubdf3.o)
                                                  ../../../../../Utilities/STM32F4-Discovery\libPDMFilter_GCC.a(pdm_filter.o)
__aeabi_fcmpeq                                    c:/program files/atollic/truestudio for stmicroelectronics stm32 lite 2.2.0/armtools/bin/../lib/gcc/arm-atollic-eabi/4.5.1/thumb/thumb2\libgcc.a(_arm_cmpsf2.o)
                                                  ../../../../../Utilities/STM32F4-Discovery\libPDMFilter_GCC.a(pdm_filter.o)
__aeabi_fcmpge                                    c:/program files/atollic/truestudio for stmicroelectronics stm32 lite 2.2.0/armtools/bin/../lib/gcc/arm-atollic-eabi/4.5.1/thumb/thumb2\libgcc.a(_arm_cmpsf2.o)
__aeabi_fcmpgt                                    c:/program files/atollic/truestudio for stmicroelectronics stm32 lite 2.2.0/armtools/bin/../lib/gcc/arm-atollic-eabi/4.5.1/thumb/thumb2\libgcc.a(_arm_cmpsf2.o)
__aeabi_fcmple                                    c:/program files/atollic/truestudio for stmicroelectronics stm32 lite 2.2.0/armtools/bin/../lib/gcc/arm-atollic-eabi/4.5.1/thumb/thumb2\libgcc.a(_arm_cmpsf2.o)
__aeabi_fcmplt                                    c:/program files/atollic/truestudio for stmicroelectronics stm32 lite 2.2.0/armtools/bin/../lib/gcc/arm-atollic-eabi/4.5.1/thumb/thumb2\libgcc.a(_arm_cmpsf2.o)
__aeabi_fdiv                                      c:/program files/atollic/truestudio for stmicroelectronics stm32 lite 2.2.0/armtools/bin/../lib/gcc/arm-atollic-eabi/4.5.1/thumb/thumb2\libgcc.a(_arm_muldivsf3.o)
__aeabi_fmul                                      c:/program files/atollic/truestudio for stmicroelectronics stm32 lite 2.2.0/armtools/bin/../lib/gcc/arm-atollic-eabi/4.5.1/thumb/thumb2\libgcc.a(_arm_muldivsf3.o)
                                                  ../../../../../Utilities/STM32F4-Discovery\libPDMFilter_GCC.a(pdm_filter.o)
__aeabi_i2d                                       c:/program files/atollic/truestudio for stmicroelectronics stm32 lite 2.2.0/armtools/bin/../lib/gcc/arm-atollic-eabi/4.5.1/thumb/thumb2\libgcc.a(_arm_addsubdf3.o)
                                                  ../../../../../Utilities/STM32F4-Discovery\libPDMFilter_GCC.a(pdm_filter.o)
__aeabi_l2d                                       c:/program files/atollic/truestudio for stmicroelectronics stm32 lite 2.2.0/armtools/bin/../lib/gcc/arm-atollic-eabi/4.5.1/thumb/thumb2\libgcc.a(_arm_addsubdf3.o)
__aeabi_ui2d                                      c:/program files/atollic/truestudio for stmicroelectronics stm32 lite 2.2.0/armtools/bin/../lib/gcc/arm-atollic-eabi/4.5.1/thumb/thumb2\libgcc.a(_arm_addsubdf3.o)
__aeabi_ul2d                                      c:/program files/atollic/truestudio for stmicroelectronics stm32 lite 2.2.0/armtools/bin/../lib/gcc/arm-atollic-eabi/4.5.1/thumb/thumb2\libgcc.a(_arm_addsubdf3.o)
__cmpsf2                                          c:/program files/atollic/truestudio for stmicroelectronics stm32 lite 2.2.0/armtools/bin/../lib/gcc/arm-atollic-eabi/4.5.1/thumb/thumb2\libgcc.a(_arm_cmpsf2.o)
__divdf3                                          c:/program files/atollic/truestudio for stmicroelectronics stm32 lite 2.2.0/armtools/bin/../lib/gcc/arm-atollic-eabi/4.5.1/thumb/thumb2\libgcc.a(_arm_muldivdf3.o)
__divsf3                                          c:/program files/atollic/truestudio for stmicroelectronics stm32 lite 2.2.0/armtools/bin/../lib/gcc/arm-atollic-eabi/4.5.1/thumb/thumb2\libgcc.a(_arm_muldivsf3.o)
__dso_handle                                      c:/program files/atollic/truestudio for stmicroelectronics stm32 lite 2.2.0/armtools/bin/../lib/gcc/arm-atollic-eabi/4.5.1/thumb/thumb2/crtbegin.o
__eqsf2                                           c:/program files/atollic/truestudio for stmicroelectronics stm32 lite 2.2.0/armtools/bin/../lib/gcc/arm-atollic-eabi/4.5.1/thumb/thumb2\libgcc.a(_arm_cmpsf2.o)
__extendsfdf2                                     c:/program files/atollic/truestudio for stmicroelectronics stm32 lite 2.2.0/armtools/bin/../lib/gcc/arm-atollic-eabi/4.5.1/thumb/thumb2\libgcc.a(_arm_addsubdf3.o)
__fixunsdfsi                                      c:/program files/atollic/truestudio for stmicroelectronics stm32 lite 2.2.0/armtools/bin/../lib/gcc/arm-atollic-eabi/4.5.1/thumb/thumb2\libgcc.a(_arm_fixunsdfsi.o)
__floatdidf                                       c:/program files/atollic/truestudio for stmicroelectronics stm32 lite 2.2.0/armtools/bin/../lib/gcc/arm-atollic-eabi/4.5.1/thumb/thumb2\libgcc.a(_arm_addsubdf3.o)
__floatsidf                                       c:/program files/atollic/truestudio for stmicroelectronics stm32 lite 2.2.0/armtools/bin/../lib/gcc/arm-atollic-eabi/4.5.1/thumb/thumb2\libgcc.a(_arm_addsubdf3.o)
__floatundidf                                     c:/program files/atollic/truestudio for stmicroelectronics stm32 lite 2.2.0/armtools/bin/../lib/gcc/arm-atollic-eabi/4.5.1/thumb/thumb2\libgcc.a(_arm_addsubdf3.o)
__floatunsidf                                     c:/program files/atollic/truestudio for stmicroelectronics stm32 lite 2.2.0/armtools/bin/../lib/gcc/arm-atollic-eabi/4.5.1/thumb/thumb2\libgcc.a(_arm_addsubdf3.o)
__gesf2                                           c:/program files/atollic/truestudio for stmicroelectronics stm32 lite 2.2.0/armtools/bin/../lib/gcc/arm-atollic-eabi/4.5.1/thumb/thumb2\libgcc.a(_arm_cmpsf2.o)
__gtsf2                                           c:/program files/atollic/truestudio for stmicroelectronics stm32 lite 2.2.0/armtools/bin/../lib/gcc/arm-atollic-eabi/4.5.1/thumb/thumb2\libgcc.a(_arm_cmpsf2.o)
__init_array_end                                  c:/program files/atollic/truestudio for stmicroelectronics stm32 lite 2.2.0/armtools/bin/../lib/gcc/arm-atollic-eabi/4.5.1/../../../../arm-atollic-eabi/lib/thumb/thumb2\libc.a(lib_a-init.o)
__init_array_start                                c:/program files/atollic/truestudio for stmicroelectronics stm32 lite 2.2.0/armtools/bin/../lib/gcc/arm-atollic-eabi/4.5.1/../../../../arm-atollic-eabi/lib/thumb/thumb2\libc.a(lib_a-init.o)
__lesf2                                           c:/program files/atollic/truestudio for stmicroelectronics stm32 lite 2.2.0/armtools/bin/../lib/gcc/arm-atollic-eabi/4.5.1/thumb/thumb2\libgcc.a(_arm_cmpsf2.o)
__libc_init_array                                 c:/program files/atollic/truestudio for stmicroelectronics stm32 lite 2.2.0/armtools/bin/../lib/gcc/arm-atollic-eabi/4.5.1/../../../../arm-atollic-eabi/lib/thumb/thumb2\libc.a(lib_a-init.o)
                                                  TrueSTUDIO\startup_stm32f4xx.o
__ltsf2                                           c:/program files/atollic/truestudio for stmicroelectronics stm32 lite 2.2.0/armtools/bin/../lib/gcc/arm-atollic-eabi/4.5.1/thumb/thumb2\libgcc.a(_arm_cmpsf2.o)
__muldf3                                          c:/program files/atollic/truestudio for stmicroelectronics stm32 lite 2.2.0/armtools/bin/../lib/gcc/arm-atollic-eabi/4.5.1/thumb/thumb2\libgcc.a(_arm_muldivdf3.o)
__mulsf3                                          c:/program files/atollic/truestudio for stmicroelectronics stm32 lite 2.2.0/armtools/bin/../lib/gcc/arm-atollic-eabi/4.5.1/thumb/thumb2\libgcc.a(_arm_muldivsf3.o)
__nesf2                                           c:/program files/atollic/truestudio for stmicroelectronics stm32 lite 2.2.0/armtools/bin/../lib/gcc/arm-atollic-eabi/4.5.1/thumb/thumb2\libgcc.a(_arm_cmpsf2.o)
__preinit_array_end                               c:/program files/atollic/truestudio for stmicroelectronics stm32 lite 2.2.0/armtools/bin/../lib/gcc/arm-atollic-eabi/4.5.1/../../../../arm-atollic-eabi/lib/thumb/thumb2\libc.a(lib_a-init.o)
__preinit_array_start                             c:/program files/atollic/truestudio for stmicroelectronics stm32 lite 2.2.0/armtools/bin/../lib/gcc/arm-atollic-eabi/4.5.1/../../../../arm-atollic-eabi/lib/thumb/thumb2\libc.a(lib_a-init.o)
__subdf3                                          c:/program files/atollic/truestudio for stmicroelectronics stm32 lite 2.2.0/armtools/bin/../lib/gcc/arm-atollic-eabi/4.5.1/thumb/thumb2\libgcc.a(_arm_addsubdf3.o)
_ebss                                             TrueSTUDIO\startup_stm32f4xx.o
_edata                                            TrueSTUDIO\startup_stm32f4xx.o
_estack                                           TrueSTUDIO\startup_stm32f4xx.o
_fini                                             c:/program files/atollic/truestudio for stmicroelectronics stm32 lite 2.2.0/armtools/bin/../lib/gcc/arm-atollic-eabi/4.5.1/thumb/thumb2/crti.o
_init                                             c:/program files/atollic/truestudio for stmicroelectronics stm32 lite 2.2.0/armtools/bin/../lib/gcc/arm-atollic-eabi/4.5.1/thumb/thumb2/crti.o
                                                  c:/program files/atollic/truestudio for stmicroelectronics stm32 lite 2.2.0/armtools/bin/../lib/gcc/arm-atollic-eabi/4.5.1/../../../../arm-atollic-eabi/lib/thumb/thumb2\libc.a(lib_a-init.o)
_sbss                                             TrueSTUDIO\startup_stm32f4xx.o
_sdata                                            TrueSTUDIO\startup_stm32f4xx.o
_sidata                                           TrueSTUDIO\startup_stm32f4xx.o
buf_idx                                           User\waverecorder.o
buf_idx1                                          User\waverecorder.o
buffer1                                           User\waveplayer.o
buffer2                                           User\waveplayer.o
buffer_switch                                     User\waveplayer.o
bytesWritten                                      User\waverecorder.o
capture                                           User\stm32f4xx_it.o
chk_mounted                                       FAT_FS\ff.o
clust2sect                                        FAT_FS\ff.o
counter                                           User\waverecorder.o
dir                                               User\usbh_usr.o
                                                  User\waveplayer.o
disk_initialize                                   STM32_USB_HOST_Library\Class\MSC\usbh_msc_fatfs.o
                                                  FAT_FS\ff.o
disk_ioctl                                        STM32_USB_HOST_Library\Class\MSC\usbh_msc_fatfs.o
                                                  FAT_FS\ff.o
disk_read                                         STM32_USB_HOST_Library\Class\MSC\usbh_msc_fatfs.o
                                                  FAT_FS\ff.o
disk_status                                       STM32_USB_HOST_Library\Class\MSC\usbh_msc_fatfs.o
                                                  FAT_FS\ff.o
disk_write                                        STM32_USB_HOST_Library\Class\MSC\usbh_msc_fatfs.o
                                                  FAT_FS\ff.o
f_chmod                                           FAT_FS\ff.o
f_close                                           FAT_FS\ff.o
                                                  User\waverecorder.o
f_getfree                                         FAT_FS\ff.o
f_gets                                            FAT_FS\ff.o
f_lseek                                           FAT_FS\ff.o
                                                  User\waveplayer.o
                                                  User\waverecorder.o
f_mkdir                                           FAT_FS\ff.o
f_mkfs                                            FAT_FS\ff.o
f_mount                                           FAT_FS\ff.o
                                                  User\usbh_usr.o
                                                  User\waveplayer.o
                                                  User\waverecorder.o
f_open                                            FAT_FS\ff.o
                                                  User\waveplayer.o
                                                  User\waverecorder.o
f_opendir                                         FAT_FS\ff.o
                                                  User\waveplayer.o
f_printf                                          FAT_FS\ff.o
f_putc                                            FAT_FS\ff.o
f_puts                                            FAT_FS\ff.o
f_read                                            FAT_FS\ff.o
                                                  User\waveplayer.o
f_readdir                                         FAT_FS\ff.o
f_rename                                          FAT_FS\ff.o
f_stat                                            FAT_FS\ff.o
f_sync                                            FAT_FS\ff.o
f_truncate                                        FAT_FS\ff.o
f_unlink                                          FAT_FS\ff.o
                                                  User\waverecorder.o
f_utime                                           FAT_FS\ff.o
f_write                                           FAT_FS\ff.o
                                                  User\waverecorder.o
fatfs                                             User\usbh_usr.o
file                                              User\usbh_usr.o
                                                  User\waverecorder.o
fileR                                             User\usbh_usr.o
                                                  User\waveplayer.o
fno                                               User\usbh_usr.o
g_pfnVectors                                      TrueSTUDIO\startup_stm32f4xx.o
get_fat                                           FAT_FS\ff.o
get_fattime                                       FAT_FS\fattime.o
                                                  FAT_FS\ff.o
joystick_use                                      User\usbh_usr.o
lcdLineNo                                         User\usbh_usr.o
main                                              User\main.o
                                                  TrueSTUDIO\startup_stm32f4xx.o
pAudioRecBuf                                      User\waverecorder.o
put_fat                                           FAT_FS\ff.o
stm32_crc                                         ../../../../../Utilities/STM32F4-Discovery\libPDMFilter_GCC.a(pdm_filter.o)
volume                                            User\waveplayer.o
writebuffer                                       User\waverecorder.o
